
niosproject2.elf:     file format elf32-littlenios2
niosproject2.elf
architecture: nios2:r1, flags 0x00000112:
EXEC_P, HAS_SYMS, D_PAGED
start address 0x00800244

Program Header:
    LOAD off    0x00001000 vaddr 0x00800000 paddr 0x00800000 align 2**12
         filesz 0x00000020 memsz 0x00000020 flags r-x
    LOAD off    0x00001020 vaddr 0x00800020 paddr 0x00800020 align 2**12
         filesz 0x00017628 memsz 0x00017628 flags r-x
    LOAD off    0x00018648 vaddr 0x00817648 paddr 0x0081932c align 2**12
         filesz 0x00001ce4 memsz 0x00001ce4 flags rw-
    LOAD off    0x0001b010 vaddr 0x0081b010 paddr 0x0081b010 align 2**12
         filesz 0x00000000 memsz 0x00000348 flags rw-

Sections:
Idx Name          Size      VMA       LMA       File off  Algn
  0 .entry        00000020  00800000  00800000  00001000  2**5
                  CONTENTS, ALLOC, LOAD, READONLY, CODE
  1 .exceptions   00000224  00800020  00800020  00001020  2**2
                  CONTENTS, ALLOC, LOAD, READONLY, CODE
  2 .text         00016ca8  00800244  00800244  00001244  2**2
                  CONTENTS, ALLOC, LOAD, READONLY, CODE
  3 .rodata       0000075c  00816eec  00816eec  00017eec  2**2
                  CONTENTS, ALLOC, LOAD, READONLY, DATA
  4 .rwdata       00001ce4  00817648  0081932c  00018648  2**2
                  CONTENTS, ALLOC, LOAD, DATA, SMALL_DATA
  5 .bss          00000348  0081b010  0081b010  0001b010  2**2
                  ALLOC, SMALL_DATA
  6 .sdram        00000000  0081b358  0081b358  0001a32c  2**0
                  CONTENTS
  7 .onchip_mem   00000000  01008000  01008000  0001a32c  2**0
                  CONTENTS
  8 .comment      00000023  00000000  00000000  0001a32c  2**0
                  CONTENTS, READONLY
  9 .debug_aranges 00001068  00000000  00000000  0001a350  2**3
                  CONTENTS, READONLY, DEBUGGING
 10 .debug_info   00028033  00000000  00000000  0001b3b8  2**0
                  CONTENTS, READONLY, DEBUGGING
 11 .debug_abbrev 00009fc2  00000000  00000000  000433eb  2**0
                  CONTENTS, READONLY, DEBUGGING
 12 .debug_line   0000dc25  00000000  00000000  0004d3ad  2**0
                  CONTENTS, READONLY, DEBUGGING
 13 .debug_frame  000027d8  00000000  00000000  0005afd4  2**2
                  CONTENTS, READONLY, DEBUGGING
 14 .debug_str    00004833  00000000  00000000  0005d7ac  2**0
                  CONTENTS, READONLY, DEBUGGING
 15 .debug_loc    00017995  00000000  00000000  00061fdf  2**0
                  CONTENTS, READONLY, DEBUGGING
 16 .debug_alt_sim_info 00000060  00000000  00000000  00079974  2**2
                  CONTENTS, READONLY, DEBUGGING
 17 .debug_ranges 000018f0  00000000  00000000  000799d8  2**3
                  CONTENTS, READONLY, DEBUGGING
 18 .thread_model 00000003  00000000  00000000  0007ecd5  2**0
                  CONTENTS, READONLY
 19 .cpu          00000003  00000000  00000000  0007ecd8  2**0
                  CONTENTS, READONLY
 20 .qsys         00000001  00000000  00000000  0007ecdb  2**0
                  CONTENTS, READONLY
 21 .simulation_enabled 00000001  00000000  00000000  0007ecdc  2**0
                  CONTENTS, READONLY
 22 .stderr_dev   00000009  00000000  00000000  0007ecdd  2**0
                  CONTENTS, READONLY
 23 .stdin_dev    00000009  00000000  00000000  0007ece6  2**0
                  CONTENTS, READONLY
 24 .stdout_dev   00000009  00000000  00000000  0007ecef  2**0
                  CONTENTS, READONLY
 25 .sopc_system_name 0000000c  00000000  00000000  0007ecf8  2**0
                  CONTENTS, READONLY
 26 .quartus_project_dir 0000002c  00000000  00000000  0007ed04  2**0
                  CONTENTS, READONLY
 27 .sopcinfo     0006b17b  00000000  00000000  0007ed30  2**0
                  CONTENTS, READONLY
SYMBOL TABLE:
00800000 l    d  .entry	00000000 .entry
00800020 l    d  .exceptions	00000000 .exceptions
00800244 l    d  .text	00000000 .text
00816eec l    d  .rodata	00000000 .rodata
00817648 l    d  .rwdata	00000000 .rwdata
0081b010 l    d  .bss	00000000 .bss
0081b358 l    d  .sdram	00000000 .sdram
01008000 l    d  .onchip_mem	00000000 .onchip_mem
00000000 l    d  .comment	00000000 .comment
00000000 l    d  .debug_aranges	00000000 .debug_aranges
00000000 l    d  .debug_info	00000000 .debug_info
00000000 l    d  .debug_abbrev	00000000 .debug_abbrev
00000000 l    d  .debug_line	00000000 .debug_line
00000000 l    d  .debug_frame	00000000 .debug_frame
00000000 l    d  .debug_str	00000000 .debug_str
00000000 l    d  .debug_loc	00000000 .debug_loc
00000000 l    d  .debug_alt_sim_info	00000000 .debug_alt_sim_info
00000000 l    d  .debug_ranges	00000000 .debug_ranges
00000000 l    df *ABS*	00000000 ../niosproject2_bsp//obj/HAL/src/crt0.o
0080028c l       .text	00000000 alt_after_alt_main
00000000 l    df *ABS*	00000000 alt_irq_handler.c
00000000 l    df *ABS*	00000000 alt_instruction_exception_entry.c
00000000 l    df *ABS*	00000000 Pacemaker.c
00000000 l    df *ABS*	00000000 Pacemaker_C.c
0081b010 l     O .bss	00000004 s_ms_counter
0081b014 l     O .bss	00000004 s_AP_pulse
00000000 l    df *ABS*	00000000 hello_world.c
00000000 l    df *ABS*	00000000 main.c
0081b060 l     O .bss	000001d0 g_pm
008192d8 l     O .rwdata	00000004 g_uart_fd
0081b018 l     O .bss	00000004 g_last_tick
0081b01c l     O .bss	00000004 g_last_hb_ms
008192dc l     O .rwdata	00000004 g_prev_keys
008192e0 l     O .rwdata	00000004 g_c_last_ms
00805ab8 l     F .text	000000b0 ms_now
00805b68 l     F .text	00000038 leds_show_mode
00805ba0 l     F .text	00000064 leds_show_pace
00805c04 l     F .text	000000e8 handle_buttons_inputs_with_debug
00805cec l     F .text	000000d0 handle_uart_inputs
00805dbc l     F .text	00000060 uart_send_probe
00805e1c l     F .text	00000094 uart_send_pace_bytes_if_enabled
00805eb0 l     F .text	0000006c heartbeat_stdout
00000000 l    df *ABS*	00000000 libgcc2.c
00000000 l    df *ABS*	00000000 libgcc2.c
00000000 l    df *ABS*	00000000 lib2-divmod.c
00000000 l    df *ABS*	00000000 adddf3.c
00000000 l    df *ABS*	00000000 divdf3.c
00000000 l    df *ABS*	00000000 gedf2.c
00000000 l    df *ABS*	00000000 ledf2.c
00000000 l    df *ABS*	00000000 muldf3.c
00000000 l    df *ABS*	00000000 subdf3.c
00000000 l    df *ABS*	00000000 floatsidf.c
00000000 l    df *ABS*	00000000 floatunsidf.c
00000000 l    df *ABS*	00000000 libgcc2.c
00000000 l    df *ABS*	00000000 libgcc2.c
00000000 l    df *ABS*	00000000 fflush.c
00000000 l    df *ABS*	00000000 findfp.c
008092b0 l     F .text	00000008 __fp_unlock
008092c4 l     F .text	0000019c __sinit.part.1
00809460 l     F .text	00000008 __fp_lock
00000000 l    df *ABS*	00000000 mallocr.c
00000000 l    df *ABS*	00000000 fwalk.c
00000000 l    df *ABS*	00000000 impure.c
00817648 l     O .rwdata	00000424 impure_data
00000000 l    df *ABS*	00000000 mallocr.c
00000000 l    df *ABS*	00000000 memset.c
00000000 l    df *ABS*	00000000 printf.c
00000000 l    df *ABS*	00000000 puts.c
00000000 l    df *ABS*	00000000 sbrkr.c
00000000 l    df *ABS*	00000000 stdio.c
00000000 l    df *ABS*	00000000 strlen.c
00000000 l    df *ABS*	00000000 vfprintf.c
00817202 l     O .rodata	00000010 zeroes.4404
0080cabc l     F .text	000000bc __sbprintf
00817212 l     O .rodata	00000010 blanks.4403
00000000 l    df *ABS*	00000000 writer.c
00000000 l    df *ABS*	00000000 wsetup.c
00000000 l    df *ABS*	00000000 closer.c
00000000 l    df *ABS*	00000000 dtoa.c
0080cd80 l     F .text	00000200 quorem
00000000 l    df *ABS*	00000000 fclose.c
00000000 l    df *ABS*	00000000 fvwrite.c
00000000 l    df *ABS*	00000000 int_errno.c
00000000 l    df *ABS*	00000000 locale.c
00817e94 l     O .rwdata	00000020 lc_ctype_charset
00817e74 l     O .rwdata	00000020 lc_message_charset
00817eb4 l     O .rwdata	00000038 lconv
00000000 l    df *ABS*	00000000 lseekr.c
00000000 l    df *ABS*	00000000 makebuf.c
00000000 l    df *ABS*	00000000 memchr.c
00000000 l    df *ABS*	00000000 memcpy.c
00000000 l    df *ABS*	00000000 memmove.c
00000000 l    df *ABS*	00000000 mprec.c
00817240 l     O .rodata	0000000c p05.2768
00000000 l    df *ABS*	00000000 readr.c
00000000 l    df *ABS*	00000000 mallocr.c
00000000 l    df *ABS*	00000000 s_fpclassify.c
00000000 l    df *ABS*	00000000 strcmp.c
00000000 l    df *ABS*	00000000 vfprintf.c
00810958 l     F .text	000000fc __sprint_r.part.0
00817374 l     O .rodata	00000010 blanks.4348
00817364 l     O .rodata	00000010 zeroes.4349
00811ee4 l     F .text	000000bc __sbprintf
00000000 l    df *ABS*	00000000 mallocr.c
00000000 l    df *ABS*	00000000 fputwc.c
00000000 l    df *ABS*	00000000 fstatr.c
00000000 l    df *ABS*	00000000 isattyr.c
00000000 l    df *ABS*	00000000 wbuf.c
00000000 l    df *ABS*	00000000 wcrtomb.c
00000000 l    df *ABS*	00000000 wctomb_r.c
00000000 l    df *ABS*	00000000 libgcc2.c
00000000 l    df *ABS*	00000000 eqdf2.c
00000000 l    df *ABS*	00000000 fixdfsi.c
00000000 l    df *ABS*	00000000 alt_close.c
00812c9c l     F .text	0000003c alt_get_errno
00000000 l    df *ABS*	00000000 alt_dev.c
00812da8 l     F .text	0000002c alt_dev_null_write
00000000 l    df *ABS*	00000000 alt_errno.c
00000000 l    df *ABS*	00000000 alt_fstat.c
00812dd4 l     F .text	0000003c alt_get_errno
00000000 l    df *ABS*	00000000 alt_isatty.c
00812ec0 l     F .text	0000003c alt_get_errno
00000000 l    df *ABS*	00000000 alt_load.c
00812fa0 l     F .text	00000068 alt_load_section
00000000 l    df *ABS*	00000000 alt_lseek.c
0081308c l     F .text	0000003c alt_get_errno
00000000 l    df *ABS*	00000000 alt_main.c
00000000 l    df *ABS*	00000000 alt_malloc_lock.c
00000000 l    df *ABS*	00000000 alt_open.c
00813260 l     F .text	0000003c alt_get_errno
0081329c l     F .text	000000c4 alt_file_locked
00000000 l    df *ABS*	00000000 alt_read.c
008134b4 l     F .text	0000003c alt_get_errno
00000000 l    df *ABS*	00000000 alt_release_fd.c
00000000 l    df *ABS*	00000000 alt_sbrk.c
00819314 l     O .rwdata	00000004 heap_end
00000000 l    df *ABS*	00000000 alt_write.c
00813700 l     F .text	0000003c alt_get_errno
00000000 l    df *ABS*	00000000 alt_sys_init.c
00813834 l     F .text	00000034 alt_dev_reg
00818094 l     O .rwdata	00001060 jtag_uart
008190f4 l     O .rwdata	00000120 lcd
00819214 l     O .rwdata	000000c4 uart
00000000 l    df *ABS*	00000000 altera_avalon_jtag_uart_fd.c
00000000 l    df *ABS*	00000000 altera_avalon_jtag_uart_init.c
00813b74 l     F .text	0000020c altera_avalon_jtag_uart_irq
00813d80 l     F .text	000000a0 altera_avalon_jtag_uart_timeout
00000000 l    df *ABS*	00000000 altera_avalon_jtag_uart_ioctl.c
00000000 l    df *ABS*	00000000 altera_avalon_jtag_uart_read.c
00000000 l    df *ABS*	00000000 altera_avalon_jtag_uart_write.c
00000000 l    df *ABS*	00000000 altera_avalon_lcd_16207.c
00819318 l     O .rwdata	00000004 colstart
008143b8 l     F .text	000000b8 lcd_write_command
00814470 l     F .text	000000d8 lcd_write_data
00814548 l     F .text	000000d0 lcd_clear_screen
00814618 l     F .text	000001ec lcd_repaint_screen
00814804 l     F .text	000000cc lcd_scroll_up
008148d0 l     F .text	000002ac lcd_handle_escape
00815054 l     F .text	000000ac alt_lcd_16207_timeout
00000000 l    df *ABS*	00000000 altera_avalon_lcd_16207_fd.c
00000000 l    df *ABS*	00000000 altera_avalon_timer_sc.c
00815294 l     F .text	00000078 alt_avalon_timer_sc_irq
00000000 l    df *ABS*	00000000 altera_avalon_timer_ts.c
00000000 l    df *ABS*	00000000 altera_avalon_timer_vars.c
00000000 l    df *ABS*	00000000 altera_avalon_uart_fd.c
00000000 l    df *ABS*	00000000 altera_avalon_uart_init.c
0081565c l     F .text	0000009c altera_avalon_uart_irq
008156f8 l     F .text	000000e4 altera_avalon_uart_rxirq
008157dc l     F .text	00000148 altera_avalon_uart_txirq
00000000 l    df *ABS*	00000000 altera_avalon_uart_read.c
00815978 l     F .text	0000003c alt_get_errno
00000000 l    df *ABS*	00000000 altera_avalon_uart_write.c
00815b90 l     F .text	0000003c alt_get_errno
00000000 l    df *ABS*	00000000 alt_alarm_start.c
00000000 l    df *ABS*	00000000 alt_dcache_flush_all.c
00000000 l    df *ABS*	00000000 alt_dev_llist_insert.c
00815eec l     F .text	0000003c alt_get_errno
00000000 l    df *ABS*	00000000 alt_do_ctors.c
00000000 l    df *ABS*	00000000 alt_do_dtors.c
00000000 l    df *ABS*	00000000 alt_find_dev.c
00000000 l    df *ABS*	00000000 alt_find_file.c
00000000 l    df *ABS*	00000000 alt_get_fd.c
00000000 l    df *ABS*	00000000 alt_icache_flush_all.c
00000000 l    df *ABS*	00000000 alt_iic.c
00000000 l    df *ABS*	00000000 alt_iic_isr_register.c
00000000 l    df *ABS*	00000000 alt_io_redirect.c
0081659c l     F .text	000000c4 alt_open_fd
00000000 l    df *ABS*	00000000 alt_irq_vars.c
00000000 l    df *ABS*	00000000 alt_tick.c
00000000 l    df *ABS*	00000000 alt_usleep.c
00000000 l    df *ABS*	00000000 altera_nios2_gen2_irq.c
00000000 l    df *ABS*	00000000 alt_busy_sleep.c
00000000 l    df *ABS*	00000000 alt_icache_flush.c
00000000 l    df *ABS*	00000000 atexit.c
00000000 l    df *ABS*	00000000 ctype_.c
008174c7 l     O .rodata	00000180 _ctype_b
00000000 l    df *ABS*	00000000 exit.c
00000000 l    df *ABS*	00000000 memcmp.c
00000000 l    df *ABS*	00000000 __atexit.c
00000000 l    df *ABS*	00000000 __call_atexit.c
00000000 l    df *ABS*	00000000 alt_exit.c
0081b05c g     O .bss	00000004 alt_instruction_exception_handler
008100cc g     F .text	00000074 _mprec_log10
008101b8 g     F .text	0000008c __any_on
008122c8 g     F .text	00000054 _isatty_r
0081724c g     O .rodata	00000028 __mprec_tinytens
0081319c g     F .text	0000007c alt_main
0080a5ac g     F .text	000000c0 _puts_r
0081b258 g     O .bss	00000100 alt_irq
0080eca4 g     F .text	00000060 _lseek_r
0081932c g       *ABS*	00000000 __flash_rwdata_start
00812b94 g     F .text	00000088 .hidden __eqdf2
0081b358 g       *ABS*	00000000 __alt_heap_start
0080a570 g     F .text	0000003c printf
00812474 g     F .text	0000009c _wcrtomb_r
0080a7ac g     F .text	0000005c __sseek
00809600 g     F .text	00000010 __sinit
0081231c g     F .text	00000140 __swbuf_r
0080ebc8 g     F .text	0000007c _setlocale_r
00809468 g     F .text	00000068 __sfmoreglue
0081323c g     F .text	00000024 __malloc_unlock
0081b04c g     O .bss	00000004 altera_avalon_timer_ts_freq
0080f0ec g     F .text	0000015c memmove
008095e8 g     F .text	00000018 _cleanup
0080f248 g     F .text	000000a8 _Balloc
00807c3c g     F .text	000000dc .hidden __gtdf2
008168b0 g     F .text	00000024 altera_nios2_gen2_irq_init
00800000 g     F .entry	0000001c __reset
00800020 g       *ABS*	00000000 __flash_exceptions_start
0081226c g     F .text	0000005c _fstat_r
0081b02c g     O .bss	00000004 errno
0080a728 g     F .text	00000008 __seofread
0081b040 g     O .bss	00000004 alt_argv
008212d8 g       *ABS*	00000000 _gp
00816880 g     F .text	00000030 usleep
0080545c g     F .text	000002cc reset
00817f14 g     O .rwdata	00000180 alt_fd_list
0081608c g     F .text	00000090 alt_find_dev
0080efa4 g     F .text	00000148 memcpy
008092b8 g     F .text	0000000c _cleanup_r
00808e20 g     F .text	000000dc .hidden __floatsidf
00816660 g     F .text	0000007c alt_io_redirect
00807d18 g     F .text	000000f4 .hidden __ltdf2
00816eec g       *ABS*	00000000 __DTOR_END__
0080a66c g     F .text	00000014 puts
00816abc g     F .text	0000009c alt_exception_cause_generated_bad_addr
00810808 g     F .text	00000074 __fpclassifyd
00810028 g     F .text	000000a4 __ratio
00811ec8 g     F .text	0000001c __vfiprintf_internal
00813f78 g     F .text	0000021c altera_avalon_jtag_uart_read
0080a540 g     F .text	00000030 _printf_r
008069ec g     F .text	00000064 .hidden __udivsi3
00812efc g     F .text	000000a4 isatty
0081729c g     O .rodata	000000c8 __mprec_tens
0080ec44 g     F .text	0000000c __locale_charset
00816a2c g     F .text	00000090 alt_icache_flush
0081b028 g     O .bss	00000004 __malloc_top_pad
008192f4 g     O .rwdata	00000004 __mb_cur_max
0080ec74 g     F .text	0000000c _localeconv_r
0080f654 g     F .text	0000003c __i2b
0080e70c g     F .text	000004bc __sfvwrite_r
0080a680 g     F .text	00000054 _sbrk_r
00810244 g     F .text	00000060 _read_r
0081930c g     O .rwdata	00000004 alt_max_fd
0080e608 g     F .text	000000f0 _fclose_r
00809280 g     F .text	00000030 fflush
0081b024 g     O .bss	00000004 __malloc_max_sbrked_mem
00806aa8 g     F .text	000008ac .hidden __adddf3
0080fdd0 g     F .text	0000010c __b2d
0081265c g     F .text	00000538 .hidden __umoddi3
008130c8 g     F .text	000000d4 lseek
008192e4 g     O .rwdata	00000004 _global_impure_ptr
008102a4 g     F .text	00000564 _realloc_r
0081b358 g       *ABS*	00000000 __bss_end
008164ac g     F .text	000000f0 alt_iic_isr_register
00816778 g     F .text	00000108 alt_tick
0080637c g     F .text	00000578 .hidden __udivdi3
008121c8 g     F .text	00000024 _fputwc_r
00817274 g     O .rodata	00000028 __mprec_bigtens
0080f438 g     F .text	00000104 __s2b
00808efc g     F .text	000000a8 .hidden __floatunsidf
00805984 g     F .text	00000028 PMc_init
0080fb10 g     F .text	00000060 __mcmp
008155b0 g     F .text	000000ac altera_avalon_uart_init
00809620 g     F .text	00000018 __fp_lock_all
00816460 g     F .text	0000004c alt_ic_irq_enabled
008166dc g     F .text	0000009c alt_alarm_stop
0081b050 g     O .bss	00000004 alt_irq_active
01008000 g       *ABS*	00000000 __alt_mem_onchip_mem
008000fc g     F .exceptions	000000d4 alt_irq_handler
00817eec g     O .rwdata	00000028 alt_dev_null
00815ea4 g     F .text	00000048 alt_dcache_flush_all
0080f53c g     F .text	00000068 __hi0bits
00812c1c g     F .text	00000080 .hidden __fixdfsi
0081932c g       *ABS*	00000000 __ram_rwdata_end
008059f4 g     F .text	00000074 PMc_run_for_elapsed_ms
00805a68 g     F .text	00000050 PMc_poll_and_clear_pulses
00819304 g     O .rwdata	00000008 alt_dev_list
0081373c g     F .text	000000f8 write
00815480 g     F .text	00000020 alt_timestamp_freq
00817648 g       *ABS*	00000000 __ram_rodata_end
00812e10 g     F .text	000000b0 fstat
00807d18 g     F .text	000000f4 .hidden __ledf2
0080f888 g     F .text	00000140 __pow5mult
00810a6c g     F .text	0000145c ___vfiprintf_internal_r
0081b038 g     O .bss	00000004 __nlocale_changed
00806a50 g     F .text	00000058 .hidden __umodsi3
0081b358 g       *ABS*	00000000 end
00814b7c g     F .text	000004d8 altera_avalon_lcd_16207_write
00815bcc g     F .text	000001ac altera_avalon_uart_write
00813ab4 g     F .text	000000c0 altera_avalon_jtag_uart_init
008001d0 g     F .exceptions	00000074 alt_instruction_exception_entry
008059ac g     F .text	00000020 PMc_start_1ms_alarm
00816eec g       *ABS*	00000000 __CTOR_LIST__
01000000 g       *ABS*	00000000 __alt_stack_pointer
0081530c g     F .text	0000007c alt_avalon_timer_sc_init
00815500 g     F .text	00000060 altera_avalon_uart_write_fd
00808fa4 g     F .text	00000064 .hidden __clzsi2
00815560 g     F .text	00000050 altera_avalon_uart_close_fd
00814194 g     F .text	00000224 altera_avalon_jtag_uart_write
00809610 g     F .text	00000004 __sfp_lock_acquire
0080eec0 g     F .text	000000e4 memchr
0080a8a8 g     F .text	000021f8 ___vfprintf_internal_r
00809774 g     F .text	00000310 _free_r
0080ec50 g     F .text	00000010 __locale_mb_cur_max
00816d38 g     F .text	00000180 __call_exitprocs
0081b034 g     O .bss	00000004 __mlocale_changed
008192ec g     O .rwdata	00000004 __malloc_sbrk_base
00800244 g     F .text	0000004c _start
0081b054 g     O .bss	00000004 _alt_tick_rate
0080f9c8 g     F .text	00000148 __lshift
0081b058 g     O .bss	00000004 _alt_nticks
008134f0 g     F .text	000000fc read
008138a0 g     F .text	000000b0 alt_sys_init
008059cc g     F .text	00000028 PMc_set_senses
00816c20 g     F .text	00000118 __register_exitproc
0080f690 g     F .text	000001f8 __multiply
00813e20 g     F .text	00000068 altera_avalon_jtag_uart_close
00817648 g       *ABS*	00000000 __ram_rwdata_start
00816eec g       *ABS*	00000000 __ram_rodata_start
0081b230 g     O .bss	00000028 __malloc_current_mallinfo
0080fedc g     F .text	0000014c __d2b
00813950 g     F .text	00000060 altera_avalon_jtag_uart_read_fd
00816224 g     F .text	000000a4 alt_get_fd
008168d4 g     F .text	00000158 alt_busy_sleep
0080cd2c g     F .text	00000054 _close_r
00816ba4 g     F .text	0000007c memcmp
00813a10 g     F .text	00000050 altera_avalon_jtag_uart_close_fd
0081b358 g       *ABS*	00000000 __alt_stack_base
00813a60 g     F .text	00000054 altera_avalon_jtag_uart_ioctl_fd
0080cbd8 g     F .text	00000154 __swsetup_r
00805728 g     F .text	0000025c tick
00807354 g     F .text	000008e8 .hidden __divdf3
008094d0 g     F .text	00000118 __sfp
00810140 g     F .text	00000078 __copybits
00817a6c g     O .rwdata	00000408 __malloc_av_
0080961c g     F .text	00000004 __sinit_lock_release
00807e0c g     F .text	00000718 .hidden __muldf3
0080a6d4 g     F .text	00000054 __sread
0081611c g     F .text	00000108 alt_find_file
00815f28 g     F .text	000000a4 alt_dev_llist_insert
00813218 g     F .text	00000024 __malloc_lock
00813650 g     F .text	000000b0 sbrk
00809224 g     F .text	0000005c _fflush_r
00811fa0 g     F .text	000000c4 _calloc_r
0081b010 g       *ABS*	00000000 __bss_start
0080a418 g     F .text	00000128 memset
00805f1c g     F .text	00000400 main
0081b044 g     O .bss	00000004 alt_envp
0081b020 g     O .bss	00000004 __malloc_max_total_mem
008139b0 g     F .text	00000060 altera_avalon_jtag_uart_write_fd
0081245c g     F .text	00000018 __swbuf
00815100 g     F .text	00000134 altera_avalon_lcd_16207_init
0080a808 g     F .text	00000008 __sclose
01000000 g       *ABS*	00000000 __alt_heap_limit
0080e6f8 g     F .text	00000014 fclose
00815388 g     F .text	00000078 alt_timestamp_start
0080cf80 g     F .text	00001688 _dtoa_r
00809c0c g     F .text	0000080c _malloc_r
008125d0 g     F .text	00000030 __ascii_wctomb
00819310 g     O .rwdata	00000004 alt_errno
00809a84 g     F .text	000000c4 _fwalk
008068f4 g     F .text	00000084 .hidden __divsi3
00809650 g     F .text	00000124 _malloc_trim_r
00816eec g       *ABS*	00000000 __CTOR_END__
0081087c g     F .text	000000dc strcmp
00816eec g       *ABS*	00000000 __flash_rodata_start
00816eec g       *ABS*	00000000 __DTOR_LIST__
00812b94 g     F .text	00000088 .hidden __nedf2
00813868 g     F .text	00000038 alt_irq_init
008135ec g     F .text	00000064 alt_release_fd
008170b6 g     O .rodata	00000100 .hidden __clz_tab
0081b030 g     O .bss	00000004 _PathLocale
00816b58 g     F .text	00000014 atexit
0080cb78 g     F .text	00000060 _write_r
0080ec80 g     F .text	00000018 setlocale
008192e8 g     O .rwdata	00000004 _impure_ptr
0081b03c g     O .bss	00000004 alt_argc
00809008 g     F .text	0000021c __sflush_r
0081b048 g     O .bss	00000004 altera_avalon_timer_ts_base
0081602c g     F .text	00000060 _do_dtors
0080ec6c g     F .text	00000008 __locale_cjk_lang
00800020 g       .exceptions	00000000 alt_irq_entry
0080fd6c g     F .text	00000064 __ulp
00809638 g     F .text	00000018 __fp_unlock_all
00815234 g     F .text	00000060 altera_avalon_lcd_16207_write_fd
008192fc g     O .rwdata	00000008 alt_fs_list
00800020 g       *ABS*	00000000 __ram_exceptions_start
0080ec98 g     F .text	0000000c localeconv
00815400 g     F .text	00000080 alt_timestamp
008162fc g     F .text	00000050 alt_ic_isr_register
0081932c g       *ABS*	00000000 _edata
008154a0 g     F .text	00000060 altera_avalon_uart_read_fd
0081b358 g       *ABS*	00000000 _end
00812064 g     F .text	00000164 __fputwc
00800244 g       *ABS*	00000000 __ram_exceptions_end
00813e88 g     F .text	000000f0 altera_avalon_jtag_uart_ioctl
008163d4 g     F .text	0000008c alt_ic_irq_disable
0080a730 g     F .text	0000007c __swrite
008192f0 g     O .rwdata	00000004 __malloc_trim_threshold
0080ec60 g     F .text	0000000c __locale_msgcharset
00816b6c g     F .text	00000038 exit
00809b48 g     F .text	000000c4 _fwalk_reent
0080fb70 g     F .text	000001fc __mdiff
00806978 g     F .text	00000074 .hidden __modsi3
00800290 g     F .text	000051cc logic
00819328 g     O .rwdata	00000004 __ctype_ptr__
01000000 g       *ABS*	00000000 __alt_data_end
00800020 g     F .exceptions	00000000 alt_exception
00809614 g     F .text	00000004 __sfp_lock_release
00800000 g       *ABS*	00000000 __alt_mem_sdram
008173c6 g     O .rodata	00000101 _ctype_
00815924 g     F .text	00000054 altera_avalon_uart_close
00816eb8 g     F .text	00000034 _exit
00815d78 g     F .text	0000012c alt_alarm_start
0080631c g     F .text	00000060 .hidden __muldi3
0080ed04 g     F .text	000001bc __smakebuf_r
0080a810 g     F .text	00000098 strlen
00813360 g     F .text	00000154 open
00807c3c g     F .text	000000dc .hidden __gedf2
008192f8 g     O .rwdata	00000004 __wctomb
00810a54 g     F .text	00000018 __sprint_r
008162c8 g     F .text	00000034 alt_icache_flush_all
0081931c g     O .rwdata	00000004 alt_priority_mask
0081634c g     F .text	00000088 alt_ic_irq_enable
0080caa0 g     F .text	0000001c __vfprintf_internal
008159b4 g     F .text	000001dc altera_avalon_uart_read
00812600 g     F .text	0000005c _wctomb_r
00808524 g     F .text	000008fc .hidden __subdf3
0080f5a4 g     F .text	000000b0 __lo0bits
00819320 g     O .rwdata	00000008 alt_alarm_list
00815fcc g     F .text	00000060 _do_ctors
00812510 g     F .text	000000c0 wcrtomb
00812cd8 g     F .text	000000d0 close
00813008 g     F .text	00000084 alt_load
008121ec g     F .text	00000080 fputwc
00809618 g     F .text	00000004 __sinit_lock_acquire
0080f318 g     F .text	00000120 __multadd
0080f2f0 g     F .text	00000028 _Bfree



Disassembly of section .entry:

00800000 <__reset>:
#if NIOS2_ICACHE_SIZE > 0 && defined(ALT_ALLOW_CODE_AT_RESET) && (!defined(ALT_SIM_OPTIMIZE) || defined(NIOS2_ECC_PRESENT))
    /* Assume the instruction cache size is always a power of two. */
#if NIOS2_ICACHE_SIZE > 0x8000
    movhi r2, %hi(NIOS2_ICACHE_SIZE)
#else
    movui r2, NIOS2_ICACHE_SIZE
  800000:	00840014 	movui	r2,4096
#endif

0:
    initi r2
  800004:	1001483a 	initi	r2
    addi r2, r2, -NIOS2_ICACHE_LINE_SIZE
  800008:	10bff804 	addi	r2,r2,-32
    bgt r2, zero, 0b
  80000c:	00bffd16 	blt	zero,r2,800004 <__alt_mem_onchip_mem+0xff7f8004>
 * Jump to the _start entry point in the .text section if reset code
 * is allowed or if optimizing for RTL simulation.
 */
#if defined(ALT_ALLOW_CODE_AT_RESET) || defined(ALT_SIM_OPTIMIZE)
    /* Jump to the _start entry point in the .text section. */
    movhi r1, %hi(_start)
  800010:	00402034 	movhi	at,128
    ori r1, r1, %lo(_start)
  800014:	08409114 	ori	at,at,580
    jmp r1
  800018:	0800683a 	jmp	at
  80001c:	00000000 	call	0 <__alt_mem_sdram-0x800000>

Disassembly of section .exceptions:

00800020 <alt_exception>:

#else /* ALT_EXCEPTION_STACK disabled */
        /* 
         * Reserve space on normal stack for registers about to be pushed.
         */
        addi  sp, sp, -76
  800020:	deffed04 	addi	sp,sp,-76
         * documentation for details).
         *
         * Leave a gap in the stack frame at 4(sp) for the muldiv handler to
         * store zero into.
         */
        stw   ra,  0(sp)
  800024:	dfc00015 	stw	ra,0(sp)
        stw   r1,   8(sp)
  800028:	d8400215 	stw	at,8(sp)
        stw   r2,  12(sp)
  80002c:	d8800315 	stw	r2,12(sp)
        stw   r3,  16(sp)
  800030:	d8c00415 	stw	r3,16(sp)
        stw   r4,  20(sp)
  800034:	d9000515 	stw	r4,20(sp)
        stw   r5,  24(sp)
  800038:	d9400615 	stw	r5,24(sp)
        stw   r6,  28(sp)
  80003c:	d9800715 	stw	r6,28(sp)
        stw   r7,  32(sp)
  800040:	d9c00815 	stw	r7,32(sp)
        rdctl r5, estatus   /* Read early to avoid usage stall */
  800044:	000b307a 	rdctl	r5,estatus
        stw   r8,  36(sp)
  800048:	da000915 	stw	r8,36(sp)
        stw   r9,  40(sp)
  80004c:	da400a15 	stw	r9,40(sp)
        stw   r10, 44(sp)
  800050:	da800b15 	stw	r10,44(sp)
        stw   r11, 48(sp)
  800054:	dac00c15 	stw	r11,48(sp)
        stw   r12, 52(sp)
  800058:	db000d15 	stw	r12,52(sp)
        stw   r13, 56(sp)
  80005c:	db400e15 	stw	r13,56(sp)
        stw   r14, 60(sp)
  800060:	db800f15 	stw	r14,60(sp)
        stw   r15, 64(sp)
  800064:	dbc01015 	stw	r15,64(sp)
        /*
         * ea-4 contains the address of the instruction being executed
         * when the exception occured. For interrupt exceptions, we will
         * will be re-issue the isntruction. Store it in 72(sp)
         */
        stw   r5,  68(sp)  /* estatus */
  800068:	d9401115 	stw	r5,68(sp)
        addi  r15, ea, -4  /* instruction that caused exception */
  80006c:	ebffff04 	addi	r15,ea,-4
        stw   r15,  72(sp)
  800070:	dbc01215 	stw	r15,72(sp)
#else
        /*
         * Test to see if the exception was a software exception or caused 
         * by an external interrupt, and vector accordingly.
         */
        rdctl r4, ipending
  800074:	0009313a 	rdctl	r4,ipending
        andi  r2, r5, 1
  800078:	2880004c 	andi	r2,r5,1
        beq   r2, zero, .Lnot_irq
  80007c:	10000326 	beq	r2,zero,80008c <alt_exception+0x6c>
        beq   r4, zero, .Lnot_irq
  800080:	20000226 	beq	r4,zero,80008c <alt_exception+0x6c>
        /*
         * Now that all necessary registers have been preserved, call 
         * alt_irq_handler() to process the interrupts.
         */

        call alt_irq_handler
  800084:	08000fc0 	call	8000fc <alt_irq_handler>

        .section .exceptions.irqreturn, "xa"

        br    .Lexception_exit
  800088:	00000706 	br	8000a8 <alt_exception+0x88>
         * upon completion, so we write ea (address of instruction *after*
         * the one where the exception occured) into 72(sp). The actual
         * instruction that caused the exception is written in r2, which these
         * handlers will utilize.
         */
        stw ea, 72(sp) /* EA is PC+4 so will skip over instruction causing exception */
  80008c:	df401215 	stw	ea,72(sp)
.Lunknown_16bit:
        addi.n r4, r4, 2 /* Need PC+2 to skip over instruction causing exception */
        stw r4, 72(sp)

#else /* CDX is not Enabled and all instructions are 32bits */
        ldw r2, -4(ea) /* Instruction value that caused exception */
  800090:	e8bfff17 	ldw	r2,-4(ea)
         * debugger is present) or go into an infinite loop since the
         * handling behavior is undefined; in that case we will not return here.
         */

        /* Load exception-causing address as first argument (r4) */
        addi   r4, ea, -4
  800094:	e93fff04 	addi	r4,ea,-4

        /* Call the instruction-exception entry */
        call   alt_instruction_exception_entry
  800098:	08001d00 	call	8001d0 <alt_instruction_exception_entry>
         * instruction
         *
         * Return code was 0: Skip. The instruction after the exception is
         * already stored in 72(sp).
         */
        bne   r2, r0, .Lexception_exit
  80009c:	1000021e 	bne	r2,zero,8000a8 <alt_exception+0x88>

        /*
         * Otherwise, modify 72(sp) to re-issue the instruction that caused the
         * exception.
         */
        addi  r15, ea, -4  /* instruction that caused exception */
  8000a0:	ebffff04 	addi	r15,ea,-4
        stw   r15,  72(sp)
  8000a4:	dbc01215 	stw	r15,72(sp)
        /* 
         * Restore the saved registers, so that all general purpose registers 
         * have been restored to their state at the time the interrupt occured.
         */

        ldw   r5,  68(sp)
  8000a8:	d9401117 	ldw	r5,68(sp)
        ldw   ea,  72(sp)  /* This becomes the PC once eret is executed */
  8000ac:	df401217 	ldw	ea,72(sp)
        ldw   ra,   0(sp)
  8000b0:	dfc00017 	ldw	ra,0(sp)

        wrctl estatus, r5
  8000b4:	2801707a 	wrctl	estatus,r5

        ldw   r1,   8(sp)
  8000b8:	d8400217 	ldw	at,8(sp)
        ldw   r2,  12(sp)
  8000bc:	d8800317 	ldw	r2,12(sp)
        ldw   r3,  16(sp)
  8000c0:	d8c00417 	ldw	r3,16(sp)
        ldw   r4,  20(sp)
  8000c4:	d9000517 	ldw	r4,20(sp)
        ldw   r5,  24(sp)
  8000c8:	d9400617 	ldw	r5,24(sp)
        ldw   r6,  28(sp)
  8000cc:	d9800717 	ldw	r6,28(sp)
        ldw   r7,  32(sp)
  8000d0:	d9c00817 	ldw	r7,32(sp)

#if defined(ALT_EXCEPTION_STACK) && defined(ALT_STACK_CHECK)
        ldw   et, %gprel(alt_exception_old_stack_limit)(gp)
#endif

        ldw   r8,  36(sp)
  8000d4:	da000917 	ldw	r8,36(sp)
        ldw   r9,  40(sp)
  8000d8:	da400a17 	ldw	r9,40(sp)
        ldw   r10, 44(sp)
  8000dc:	da800b17 	ldw	r10,44(sp)
        ldw   r11, 48(sp)
  8000e0:	dac00c17 	ldw	r11,48(sp)
        ldw   r12, 52(sp)
  8000e4:	db000d17 	ldw	r12,52(sp)
        ldw   r13, 56(sp)
  8000e8:	db400e17 	ldw	r13,56(sp)
        ldw   r14, 60(sp)
  8000ec:	db800f17 	ldw	r14,60(sp)
        ldw   r15, 64(sp)
  8000f0:	dbc01017 	ldw	r15,64(sp)
        stw   et, %gprel(alt_stack_limit_value)(gp)
        stw   zero, %gprel(alt_exception_old_stack_limit)(gp)
#endif /* ALT_STACK_CHECK */
        ldw   sp,  76(sp)
#else /* ALT_EXCEPTION_STACK disabled */
        addi  sp, sp, 76
  8000f4:	dec01304 	addi	sp,sp,76

        /*
         * Return to the interrupted instruction.
         */

        eret
  8000f8:	ef80083a 	eret

008000fc <alt_irq_handler>:
 * instruction is present if the macro ALT_CI_INTERRUPT_VECTOR defined.
 */

void alt_irq_handler (void) __attribute__ ((section (".exceptions")));
void alt_irq_handler (void)
{
  8000fc:	defff904 	addi	sp,sp,-28
  800100:	dfc00615 	stw	ra,24(sp)
  800104:	df000515 	stw	fp,20(sp)
  800108:	df000504 	addi	fp,sp,20
  
  /*
   * Notify the operating system that we are at interrupt level.
   */ 
  
  ALT_OS_INT_ENTER();
  80010c:	0001883a 	nop
#ifndef NIOS2_EIC_PRESENT
static ALT_INLINE alt_u32 ALT_ALWAYS_INLINE alt_irq_pending (void)
{
  alt_u32 active;

  NIOS2_READ_IPENDING (active);
  800110:	0005313a 	rdctl	r2,ipending
  800114:	e0bffe15 	stw	r2,-8(fp)

  return active;
  800118:	e0bffe17 	ldw	r2,-8(fp)
   * Consider the case where the high priority interupt is asserted during
   * the interrupt entry sequence for a lower priority interrupt to see why
   * this is the case.
   */

  active = alt_irq_pending ();
  80011c:	e0bffb15 	stw	r2,-20(fp)

  do
  {
    i = 0;
  800120:	e03ffd15 	stw	zero,-12(fp)
    mask = 1;
  800124:	00800044 	movi	r2,1
  800128:	e0bffc15 	stw	r2,-16(fp)
     * called to clear the interrupt condition.
     */

    do
    {
      if (active & mask)
  80012c:	e0fffb17 	ldw	r3,-20(fp)
  800130:	e0bffc17 	ldw	r2,-16(fp)
  800134:	1884703a 	and	r2,r3,r2
  800138:	10001426 	beq	r2,zero,80018c <alt_irq_handler+0x90>
      { 
#ifdef ALT_ENHANCED_INTERRUPT_API_PRESENT
        alt_irq[i].handler(alt_irq[i].context); 
  80013c:	008020b4 	movhi	r2,130
  800140:	10ac9604 	addi	r2,r2,-19880
  800144:	e0fffd17 	ldw	r3,-12(fp)
  800148:	180690fa 	slli	r3,r3,3
  80014c:	10c5883a 	add	r2,r2,r3
  800150:	10c00017 	ldw	r3,0(r2)
  800154:	008020b4 	movhi	r2,130
  800158:	10ac9604 	addi	r2,r2,-19880
  80015c:	e13ffd17 	ldw	r4,-12(fp)
  800160:	200890fa 	slli	r4,r4,3
  800164:	1105883a 	add	r2,r2,r4
  800168:	10800104 	addi	r2,r2,4
  80016c:	10800017 	ldw	r2,0(r2)
  800170:	1009883a 	mov	r4,r2
  800174:	183ee83a 	callr	r3
#else
        alt_irq[i].handler(alt_irq[i].context, i); 
#endif
        break;
  800178:	0001883a 	nop
#ifndef NIOS2_EIC_PRESENT
static ALT_INLINE alt_u32 ALT_ALWAYS_INLINE alt_irq_pending (void)
{
  alt_u32 active;

  NIOS2_READ_IPENDING (active);
  80017c:	0005313a 	rdctl	r2,ipending
  800180:	e0bfff15 	stw	r2,-4(fp)

  return active;
  800184:	e0bfff17 	ldw	r2,-4(fp)
  800188:	00000706 	br	8001a8 <alt_irq_handler+0xac>
      }
      mask <<= 1;
  80018c:	e0bffc17 	ldw	r2,-16(fp)
  800190:	1085883a 	add	r2,r2,r2
  800194:	e0bffc15 	stw	r2,-16(fp)
      i++;
  800198:	e0bffd17 	ldw	r2,-12(fp)
  80019c:	10800044 	addi	r2,r2,1
  8001a0:	e0bffd15 	stw	r2,-12(fp)

    } while (1);
  8001a4:	003fe106 	br	80012c <__alt_mem_onchip_mem+0xff7f812c>

    active = alt_irq_pending ();
  8001a8:	e0bffb15 	stw	r2,-20(fp)
    
  } while (active);
  8001ac:	e0bffb17 	ldw	r2,-20(fp)
  8001b0:	103fdb1e 	bne	r2,zero,800120 <__alt_mem_onchip_mem+0xff7f8120>

  /*
   * Notify the operating system that interrupt processing is complete.
   */ 

  ALT_OS_INT_EXIT();
  8001b4:	0001883a 	nop
}
  8001b8:	0001883a 	nop
  8001bc:	e037883a 	mov	sp,fp
  8001c0:	dfc00117 	ldw	ra,4(sp)
  8001c4:	df000017 	ldw	fp,0(sp)
  8001c8:	dec00204 	addi	sp,sp,8
  8001cc:	f800283a 	ret

008001d0 <alt_instruction_exception_entry>:
 * that handler if it has been registered. Absent a handler, it will
 * break break or hang as discussed below.
 */
int 
alt_instruction_exception_entry (alt_u32 exception_pc)
{
  8001d0:	defffb04 	addi	sp,sp,-20
  8001d4:	dfc00415 	stw	ra,16(sp)
  8001d8:	df000315 	stw	fp,12(sp)
  8001dc:	df000304 	addi	fp,sp,12
  8001e0:	e13fff15 	stw	r4,-4(fp)
 * NIOS2_EXCEPTION_CAUSE_NOT_PRESENT. Your handling routine should
 * check the validity of the cause argument before proceeding.
 */
#ifdef NIOS2_HAS_EXTRA_EXCEPTION_INFO
  /* Get exception cause & "badaddr" */
  NIOS2_READ_EXCEPTION(cause);
  8001e4:	000531fa 	rdctl	r2,exception
  8001e8:	e0bffd15 	stw	r2,-12(fp)
  cause = ( (cause & NIOS2_EXCEPTION_REG_CAUSE_MASK) >>
  8001ec:	e0bffd17 	ldw	r2,-12(fp)
  8001f0:	10801f0c 	andi	r2,r2,124
  8001f4:	1004d0ba 	srli	r2,r2,2
  8001f8:	e0bffd15 	stw	r2,-12(fp)
              NIOS2_EXCEPTION_REG_CAUSE_OFST );

  NIOS2_READ_BADADDR(badaddr);
  8001fc:	0005333a 	rdctl	r2,badaddr
  800200:	e0bffe15 	stw	r2,-8(fp)
#else
  cause = NIOS2_EXCEPTION_CAUSE_NOT_PRESENT;
  badaddr = 0;
#endif /* NIOS2_HAS_EXTRA_EXCEPTION_INFO */

  if(alt_instruction_exception_handler) {
  800204:	d0a76117 	ldw	r2,-25212(gp)
  800208:	10000726 	beq	r2,zero,800228 <alt_instruction_exception_entry+0x58>
     * Call handler. Its return value indicates whether the exception-causing
     * instruction should be re-issued. The code that called us,
     * alt_eceptions_entry.S, will look at this value and adjust the ea
     * register as necessary
     */
    return alt_instruction_exception_handler(cause, exception_pc, badaddr);
  80020c:	d0a76117 	ldw	r2,-25212(gp)
  800210:	e0fffd17 	ldw	r3,-12(fp)
  800214:	e1bffe17 	ldw	r6,-8(fp)
  800218:	e17fff17 	ldw	r5,-4(fp)
  80021c:	1809883a 	mov	r4,r3
  800220:	103ee83a 	callr	r2
  800224:	00000206 	br	800230 <alt_instruction_exception_entry+0x60>
   *    (a peripheral which negates its interrupt output before its
   *    interrupt handler has been executed will cause spurious interrupts)
   */
  else {
#ifdef NIOS2_HAS_DEBUG_STUB
    NIOS2_BREAK();
  800228:	003da03a 	break	0
      ;
#endif /* NIOS2_HAS_DEBUG_STUB */
  }

  /* We should not get here. Remove compiler warning. */
  return NIOS2_EXCEPTION_RETURN_REISSUE_INST;
  80022c:	0005883a 	mov	r2,zero
}
  800230:	e037883a 	mov	sp,fp
  800234:	dfc00117 	ldw	ra,4(sp)
  800238:	df000017 	ldw	fp,0(sp)
  80023c:	dec00204 	addi	sp,sp,8
  800240:	f800283a 	ret

Disassembly of section .text:

00800244 <_start>:

    /* Assume the data cache size is always a power of two. */
#if NIOS2_DCACHE_SIZE > 0x8000
    movhi r2, %hi(NIOS2_DCACHE_SIZE)
#else
    movui r2, NIOS2_DCACHE_SIZE
  800244:	00820014 	movui	r2,2048
#endif

0:
    initd 0(r2)
  800248:	10000033 	initd	0(r2)
#ifdef NIOS2_ECC_PRESENT
    addi r2, r2, -4
#else
    addi r2, r2, -NIOS2_DCACHE_LINE_SIZE
  80024c:	10bff804 	addi	r2,r2,-32
#endif
    bgt r2, zero, 0b
  800250:	00bffd16 	blt	zero,r2,800248 <__alt_mem_onchip_mem+0xff7f8248>

    /*
     * Now that the caches are initialized, set up the stack pointer and global pointer.
     * The values provided by the linker are assumed to be correctly aligned.
     */
    movhi sp, %hi(__alt_stack_pointer)
  800254:	06c04034 	movhi	sp,256
    ori sp, sp, %lo(__alt_stack_pointer)
  800258:	dec00014 	ori	sp,sp,0
    movhi gp, %hi(_gp)
  80025c:	068020b4 	movhi	gp,130
    ori gp, gp, %lo(_gp)
  800260:	d684b614 	ori	gp,gp,4824
 */
#ifndef ALT_SIM_OPTIMIZE
    /* Log that the BSS is about to be cleared. */
    ALT_LOG_PUTS(alt_log_msg_bss)

    movhi r2, %hi(__bss_start)
  800264:	00802074 	movhi	r2,129
    ori r2, r2, %lo(__bss_start)
  800268:	10ac0414 	ori	r2,r2,45072

    movhi r3, %hi(__bss_end)
  80026c:	00c02074 	movhi	r3,129
    ori r3, r3, %lo(__bss_end)
  800270:	18ecd614 	ori	r3,r3,45912

    beq r2, r3, 1f
  800274:	10c00326 	beq	r2,r3,800284 <_start+0x40>

0:
    stw zero, (r2)
  800278:	10000015 	stw	zero,0(r2)
    addi r2, r2, 4
  80027c:	10800104 	addi	r2,r2,4
    bltu r2, r3, 0b
  800280:	10fffd36 	bltu	r2,r3,800278 <__alt_mem_onchip_mem+0xff7f8278>
     * section aren't defined until alt_load() has been called).
     */
    mov   et, zero
#endif

    call alt_load
  800284:	08130080 	call	813008 <alt_load>

    /* Log that alt_main is about to be called. */
    ALT_LOG_PUTS(alt_log_msg_alt_main)

    /* Call the C entry point. It should never return. */
    call alt_main
  800288:	081319c0 	call	81319c <alt_main>

0080028c <alt_after_alt_main>:

    /* Wait in infinite loop in case alt_main does return. */
alt_after_alt_main:
    br alt_after_alt_main
  80028c:	003fff06 	br	80028c <__alt_mem_onchip_mem+0xff7f828c>

00800290 <logic>:

#include "timing.h"

#include "Pacemaker.h"

void logic(TickData* d) {
  800290:	defffa04 	addi	sp,sp,-24
  800294:	dfc00515 	stw	ra,20(sp)
  800298:	df000415 	stw	fp,16(sp)
  80029c:	dc800315 	stw	r18,12(sp)
  8002a0:	dc400215 	stw	r17,8(sp)
  8002a4:	dc000115 	stw	r16,4(sp)
  8002a8:	df000404 	addi	fp,sp,16
  8002ac:	e13ffc15 	stw	r4,-16(fp)
  d->_g16 = d->_pg8;
  8002b0:	e0bffc17 	ldw	r2,-16(fp)
  8002b4:	10c06ac3 	ldbu	r3,427(r2)
  8002b8:	e0bffc17 	ldw	r2,-16(fp)
  8002bc:	10c03945 	stb	r3,229(r2)
  d->_g10 = d->_pg29;
  8002c0:	e0bffc17 	ldw	r2,-16(fp)
  8002c4:	10c06b03 	ldbu	r3,428(r2)
  8002c8:	e0bffc17 	ldw	r2,-16(fp)
  8002cc:	10c03805 	stb	r3,224(r2)
  d->_g13_e1 = !(d->_g16 || d->_g10);
  8002d0:	e0bffc17 	ldw	r2,-16(fp)
  8002d4:	10803943 	ldbu	r2,229(r2)
  8002d8:	10803fcc 	andi	r2,r2,255
  8002dc:	1080201c 	xori	r2,r2,128
  8002e0:	10bfe004 	addi	r2,r2,-128
  8002e4:	1000081e 	bne	r2,zero,800308 <logic+0x78>
  8002e8:	e0bffc17 	ldw	r2,-16(fp)
  8002ec:	10803803 	ldbu	r2,224(r2)
  8002f0:	10803fcc 	andi	r2,r2,255
  8002f4:	1080201c 	xori	r2,r2,128
  8002f8:	10bfe004 	addi	r2,r2,-128
  8002fc:	1000021e 	bne	r2,zero,800308 <logic+0x78>
  800300:	00800044 	movi	r2,1
  800304:	00000106 	br	80030c <logic+0x7c>
  800308:	0005883a 	mov	r2,zero
  80030c:	1007883a 	mov	r3,r2
  800310:	e0bffc17 	ldw	r2,-16(fp)
  800314:	10c06785 	stb	r3,414(r2)
  d->_g20 = d->_pg17;
  800318:	e0bffc17 	ldw	r2,-16(fp)
  80031c:	10c06b43 	ldbu	r3,429(r2)
  800320:	e0bffc17 	ldw	r2,-16(fp)
  800324:	10c039c5 	stb	r3,231(r2)
  d->_g21 = d->_g20 && d->VS;
  800328:	e0bffc17 	ldw	r2,-16(fp)
  80032c:	108039c3 	ldbu	r2,231(r2)
  800330:	10803fcc 	andi	r2,r2,255
  800334:	1080201c 	xori	r2,r2,128
  800338:	10bfe004 	addi	r2,r2,-128
  80033c:	10000826 	beq	r2,zero,800360 <logic+0xd0>
  800340:	e0bffc17 	ldw	r2,-16(fp)
  800344:	10803143 	ldbu	r2,197(r2)
  800348:	10803fcc 	andi	r2,r2,255
  80034c:	1080201c 	xori	r2,r2,128
  800350:	10bfe004 	addi	r2,r2,-128
  800354:	10000226 	beq	r2,zero,800360 <logic+0xd0>
  800358:	00800044 	movi	r2,1
  80035c:	00000106 	br	800364 <logic+0xd4>
  800360:	0005883a 	mov	r2,zero
  800364:	1007883a 	mov	r3,r2
  800368:	e0bffc17 	ldw	r2,-16(fp)
  80036c:	10c03a05 	stb	r3,232(r2)
  if (d->_g21) {
  800370:	e0bffc17 	ldw	r2,-16(fp)
  800374:	10803a03 	ldbu	r2,232(r2)
  800378:	10803fcc 	andi	r2,r2,255
  80037c:	1080201c 	xori	r2,r2,128
  800380:	10bfe004 	addi	r2,r2,-128
  800384:	10000326 	beq	r2,zero,800394 <logic+0x104>
    d->_Pacemaker_local__Atrig = 1;
  800388:	e0bffc17 	ldw	r2,-16(fp)
  80038c:	00c00044 	movi	r3,1
  800390:	10c03405 	stb	r3,208(r2)
  }
  d->_g181 = d->_pg151;
  800394:	e0bffc17 	ldw	r2,-16(fp)
  800398:	10c06b83 	ldbu	r3,430(r2)
  80039c:	e0bffc17 	ldw	r2,-16(fp)
  8003a0:	10c056c5 	stb	r3,347(r2)
  if (d->_g181) {
  8003a4:	e0bffc17 	ldw	r2,-16(fp)
  8003a8:	108056c3 	ldbu	r2,347(r2)
  8003ac:	10803fcc 	andi	r2,r2,255
  8003b0:	1080201c 	xori	r2,r2,128
  8003b4:	10bfe004 	addi	r2,r2,-128
  8003b8:	10001226 	beq	r2,zero,800404 <logic+0x174>
    d->_region0_VRefrac_t += d->deltaT;
  8003bc:	e13ffc17 	ldw	r4,-16(fp)
  8003c0:	20802117 	ldw	r2,132(r4)
  8003c4:	20c02217 	ldw	r3,136(r4)
  8003c8:	e1bffc17 	ldw	r6,-16(fp)
  8003cc:	31002d17 	ldw	r4,180(r6)
  8003d0:	31402e17 	ldw	r5,184(r6)
  8003d4:	200d883a 	mov	r6,r4
  8003d8:	280f883a 	mov	r7,r5
  8003dc:	1009883a 	mov	r4,r2
  8003e0:	180b883a 	mov	r5,r3
  8003e4:	0806aa80 	call	806aa8 <__adddf3>
  8003e8:	1009883a 	mov	r4,r2
  8003ec:	180b883a 	mov	r5,r3
  8003f0:	2005883a 	mov	r2,r4
  8003f4:	2807883a 	mov	r3,r5
  8003f8:	e13ffc17 	ldw	r4,-16(fp)
  8003fc:	20802115 	stw	r2,132(r4)
  800400:	20c02215 	stw	r3,136(r4)
  }
  d->_g23 = d->_g20 && !d->VS;
  800404:	e0bffc17 	ldw	r2,-16(fp)
  800408:	108039c3 	ldbu	r2,231(r2)
  80040c:	10803fcc 	andi	r2,r2,255
  800410:	1080201c 	xori	r2,r2,128
  800414:	10bfe004 	addi	r2,r2,-128
  800418:	10000826 	beq	r2,zero,80043c <logic+0x1ac>
  80041c:	e0bffc17 	ldw	r2,-16(fp)
  800420:	10803143 	ldbu	r2,197(r2)
  800424:	10803fcc 	andi	r2,r2,255
  800428:	1080201c 	xori	r2,r2,128
  80042c:	10bfe004 	addi	r2,r2,-128
  800430:	1000021e 	bne	r2,zero,80043c <logic+0x1ac>
  800434:	00800044 	movi	r2,1
  800438:	00000106 	br	800440 <logic+0x1b0>
  80043c:	0005883a 	mov	r2,zero
  800440:	1007883a 	mov	r3,r2
  800444:	e0bffc17 	ldw	r2,-16(fp)
  800448:	10c03a85 	stb	r3,234(r2)
  d->_cg23 = d->_region0_VRefrac_t >= d->T_VRP;
  80044c:	e0bffc17 	ldw	r2,-16(fp)
  800450:	14002117 	ldw	r16,132(r2)
  800454:	14402217 	ldw	r17,136(r2)
  800458:	e0bffc17 	ldw	r2,-16(fp)
  80045c:	10800417 	ldw	r2,16(r2)
  800460:	1009883a 	mov	r4,r2
  800464:	0808e200 	call	808e20 <__floatsidf>
  800468:	1009883a 	mov	r4,r2
  80046c:	180b883a 	mov	r5,r3
  800470:	04800044 	movi	r18,1
  800474:	200d883a 	mov	r6,r4
  800478:	280f883a 	mov	r7,r5
  80047c:	8009883a 	mov	r4,r16
  800480:	880b883a 	mov	r5,r17
  800484:	0807c3c0 	call	807c3c <__gedf2>
  800488:	1000010e 	bge	r2,zero,800490 <logic+0x200>
  80048c:	0025883a 	mov	r18,zero
  800490:	9007883a 	mov	r3,r18
  800494:	e0bffc17 	ldw	r2,-16(fp)
  800498:	10c05a45 	stb	r3,361(r2)
  d->_g24 = d->_g23 && d->_cg23;
  80049c:	e0bffc17 	ldw	r2,-16(fp)
  8004a0:	10803a83 	ldbu	r2,234(r2)
  8004a4:	10803fcc 	andi	r2,r2,255
  8004a8:	1080201c 	xori	r2,r2,128
  8004ac:	10bfe004 	addi	r2,r2,-128
  8004b0:	10000826 	beq	r2,zero,8004d4 <logic+0x244>
  8004b4:	e0bffc17 	ldw	r2,-16(fp)
  8004b8:	10805a43 	ldbu	r2,361(r2)
  8004bc:	10803fcc 	andi	r2,r2,255
  8004c0:	1080201c 	xori	r2,r2,128
  8004c4:	10bfe004 	addi	r2,r2,-128
  8004c8:	10000226 	beq	r2,zero,8004d4 <logic+0x244>
  8004cc:	00800044 	movi	r2,1
  8004d0:	00000106 	br	8004d8 <logic+0x248>
  8004d4:	0005883a 	mov	r2,zero
  8004d8:	1007883a 	mov	r3,r2
  8004dc:	e0bffc17 	ldw	r2,-16(fp)
  8004e0:	10c03ac5 	stb	r3,235(r2)
  if (d->_g24) {
  8004e4:	e0bffc17 	ldw	r2,-16(fp)
  8004e8:	10803ac3 	ldbu	r2,235(r2)
  8004ec:	10803fcc 	andi	r2,r2,255
  8004f0:	1080201c 	xori	r2,r2,128
  8004f4:	10bfe004 	addi	r2,r2,-128
  8004f8:	10000326 	beq	r2,zero,800508 <logic+0x278>
    d->_Pacemaker_local__Atrig1 = 1;
  8004fc:	e0bffc17 	ldw	r2,-16(fp)
  800500:	00c00044 	movi	r3,1
  800504:	10c03445 	stb	r3,209(r2)
  }
  d->sleepT = 1000.0;
  800508:	e0fffc17 	ldw	r3,-16(fp)
  80050c:	18002f15 	stw	zero,188(r3)
  800510:	009023f4 	movhi	r2,16527
  800514:	10900004 	addi	r2,r2,16384
  800518:	18803015 	stw	r2,192(r3)
  d->_g16 = d->_g10 || d->_g16;
  80051c:	e0bffc17 	ldw	r2,-16(fp)
  800520:	10803803 	ldbu	r2,224(r2)
  800524:	10803fcc 	andi	r2,r2,255
  800528:	1080201c 	xori	r2,r2,128
  80052c:	10bfe004 	addi	r2,r2,-128
  800530:	1000061e 	bne	r2,zero,80054c <logic+0x2bc>
  800534:	e0bffc17 	ldw	r2,-16(fp)
  800538:	10803943 	ldbu	r2,229(r2)
  80053c:	10803fcc 	andi	r2,r2,255
  800540:	1080201c 	xori	r2,r2,128
  800544:	10bfe004 	addi	r2,r2,-128
  800548:	10000226 	beq	r2,zero,800554 <logic+0x2c4>
  80054c:	00800044 	movi	r2,1
  800550:	00000106 	br	800558 <logic+0x2c8>
  800554:	0005883a 	mov	r2,zero
  800558:	1007883a 	mov	r3,r2
  80055c:	e0bffc17 	ldw	r2,-16(fp)
  800560:	10c03945 	stb	r3,229(r2)
  d->_cg11 = d->_region0_VRefrac_t < d->T_VRP;
  800564:	e0bffc17 	ldw	r2,-16(fp)
  800568:	14002117 	ldw	r16,132(r2)
  80056c:	14402217 	ldw	r17,136(r2)
  800570:	e0bffc17 	ldw	r2,-16(fp)
  800574:	10800417 	ldw	r2,16(r2)
  800578:	1009883a 	mov	r4,r2
  80057c:	0808e200 	call	808e20 <__floatsidf>
  800580:	1009883a 	mov	r4,r2
  800584:	180b883a 	mov	r5,r3
  800588:	04800044 	movi	r18,1
  80058c:	200d883a 	mov	r6,r4
  800590:	280f883a 	mov	r7,r5
  800594:	8009883a 	mov	r4,r16
  800598:	880b883a 	mov	r5,r17
  80059c:	0807d180 	call	807d18 <__ledf2>
  8005a0:	10000116 	blt	r2,zero,8005a8 <logic+0x318>
  8005a4:	0025883a 	mov	r18,zero
  8005a8:	9007883a 	mov	r3,r18
  8005ac:	e0bffc17 	ldw	r2,-16(fp)
  8005b0:	10c05985 	stb	r3,358(r2)
  d->_g10 = d->_g16 && d->_cg11;
  8005b4:	e0bffc17 	ldw	r2,-16(fp)
  8005b8:	10803943 	ldbu	r2,229(r2)
  8005bc:	10803fcc 	andi	r2,r2,255
  8005c0:	1080201c 	xori	r2,r2,128
  8005c4:	10bfe004 	addi	r2,r2,-128
  8005c8:	10000826 	beq	r2,zero,8005ec <logic+0x35c>
  8005cc:	e0bffc17 	ldw	r2,-16(fp)
  8005d0:	10805983 	ldbu	r2,358(r2)
  8005d4:	10803fcc 	andi	r2,r2,255
  8005d8:	1080201c 	xori	r2,r2,128
  8005dc:	10bfe004 	addi	r2,r2,-128
  8005e0:	10000226 	beq	r2,zero,8005ec <logic+0x35c>
  8005e4:	00800044 	movi	r2,1
  8005e8:	00000106 	br	8005f0 <logic+0x360>
  8005ec:	0005883a 	mov	r2,zero
  8005f0:	1007883a 	mov	r3,r2
  8005f4:	e0bffc17 	ldw	r2,-16(fp)
  8005f8:	10c03805 	stb	r3,224(r2)
  if (d->_g10) {
  8005fc:	e0bffc17 	ldw	r2,-16(fp)
  800600:	10803803 	ldbu	r2,224(r2)
  800604:	10803fcc 	andi	r2,r2,255
  800608:	1080201c 	xori	r2,r2,128
  80060c:	10bfe004 	addi	r2,r2,-128
  800610:	10003426 	beq	r2,zero,8006e4 <logic+0x454>
    d->sleepT = (d->sleepT < (d->T_VRP - d->_region0_VRefrac_t)) ? d->sleepT : (d->T_VRP - d->_region0_VRefrac_t);
  800614:	e0bffc17 	ldw	r2,-16(fp)
  800618:	14002f17 	ldw	r16,188(r2)
  80061c:	14403017 	ldw	r17,192(r2)
  800620:	e0bffc17 	ldw	r2,-16(fp)
  800624:	10800417 	ldw	r2,16(r2)
  800628:	1009883a 	mov	r4,r2
  80062c:	0808e200 	call	808e20 <__floatsidf>
  800630:	1011883a 	mov	r8,r2
  800634:	1813883a 	mov	r9,r3
  800638:	e13ffc17 	ldw	r4,-16(fp)
  80063c:	20802117 	ldw	r2,132(r4)
  800640:	20c02217 	ldw	r3,136(r4)
  800644:	100d883a 	mov	r6,r2
  800648:	180f883a 	mov	r7,r3
  80064c:	4009883a 	mov	r4,r8
  800650:	480b883a 	mov	r5,r9
  800654:	08085240 	call	808524 <__subdf3>
  800658:	1009883a 	mov	r4,r2
  80065c:	180b883a 	mov	r5,r3
  800660:	2005883a 	mov	r2,r4
  800664:	2807883a 	mov	r3,r5
  800668:	100d883a 	mov	r6,r2
  80066c:	180f883a 	mov	r7,r3
  800670:	8009883a 	mov	r4,r16
  800674:	880b883a 	mov	r5,r17
  800678:	0807d180 	call	807d18 <__ledf2>
  80067c:	1000040e 	bge	r2,zero,800690 <logic+0x400>
  800680:	e13ffc17 	ldw	r4,-16(fp)
  800684:	20802f17 	ldw	r2,188(r4)
  800688:	20c03017 	ldw	r3,192(r4)
  80068c:	00001206 	br	8006d8 <logic+0x448>
  800690:	e0bffc17 	ldw	r2,-16(fp)
  800694:	10800417 	ldw	r2,16(r2)
  800698:	1009883a 	mov	r4,r2
  80069c:	0808e200 	call	808e20 <__floatsidf>
  8006a0:	1011883a 	mov	r8,r2
  8006a4:	1813883a 	mov	r9,r3
  8006a8:	e13ffc17 	ldw	r4,-16(fp)
  8006ac:	20802117 	ldw	r2,132(r4)
  8006b0:	20c02217 	ldw	r3,136(r4)
  8006b4:	100d883a 	mov	r6,r2
  8006b8:	180f883a 	mov	r7,r3
  8006bc:	4009883a 	mov	r4,r8
  8006c0:	480b883a 	mov	r5,r9
  8006c4:	08085240 	call	808524 <__subdf3>
  8006c8:	1009883a 	mov	r4,r2
  8006cc:	180b883a 	mov	r5,r3
  8006d0:	2005883a 	mov	r2,r4
  8006d4:	2807883a 	mov	r3,r5
  8006d8:	e13ffc17 	ldw	r4,-16(fp)
  8006dc:	20802f15 	stw	r2,188(r4)
  8006e0:	20c03015 	stw	r3,192(r4)
  }
  d->_cg12 = d->_Pacemaker_local__Atrig || d->_Pacemaker_local__Atrig1;
  8006e4:	e0bffc17 	ldw	r2,-16(fp)
  8006e8:	10803403 	ldbu	r2,208(r2)
  8006ec:	10803fcc 	andi	r2,r2,255
  8006f0:	1080201c 	xori	r2,r2,128
  8006f4:	10bfe004 	addi	r2,r2,-128
  8006f8:	1000061e 	bne	r2,zero,800714 <logic+0x484>
  8006fc:	e0bffc17 	ldw	r2,-16(fp)
  800700:	10803443 	ldbu	r2,209(r2)
  800704:	10803fcc 	andi	r2,r2,255
  800708:	1080201c 	xori	r2,r2,128
  80070c:	10bfe004 	addi	r2,r2,-128
  800710:	10000226 	beq	r2,zero,80071c <logic+0x48c>
  800714:	00800044 	movi	r2,1
  800718:	00000106 	br	800720 <logic+0x490>
  80071c:	0005883a 	mov	r2,zero
  800720:	1007883a 	mov	r3,r2
  800724:	e0bffc17 	ldw	r2,-16(fp)
  800728:	10c05945 	stb	r3,357(r2)
  d->_g11 = d->_g16 && !d->_cg11;
  80072c:	e0bffc17 	ldw	r2,-16(fp)
  800730:	10803943 	ldbu	r2,229(r2)
  800734:	10803fcc 	andi	r2,r2,255
  800738:	1080201c 	xori	r2,r2,128
  80073c:	10bfe004 	addi	r2,r2,-128
  800740:	10000826 	beq	r2,zero,800764 <logic+0x4d4>
  800744:	e0bffc17 	ldw	r2,-16(fp)
  800748:	10805983 	ldbu	r2,358(r2)
  80074c:	10803fcc 	andi	r2,r2,255
  800750:	1080201c 	xori	r2,r2,128
  800754:	10bfe004 	addi	r2,r2,-128
  800758:	1000021e 	bne	r2,zero,800764 <logic+0x4d4>
  80075c:	00800044 	movi	r2,1
  800760:	00000106 	br	800768 <logic+0x4d8>
  800764:	0005883a 	mov	r2,zero
  800768:	1007883a 	mov	r3,r2
  80076c:	e0bffc17 	ldw	r2,-16(fp)
  800770:	10c03845 	stb	r3,225(r2)
  d->_cg14 = d->_Pacemaker_local__Atrig || d->_Pacemaker_local__Atrig1;
  800774:	e0bffc17 	ldw	r2,-16(fp)
  800778:	10803403 	ldbu	r2,208(r2)
  80077c:	10803fcc 	andi	r2,r2,255
  800780:	1080201c 	xori	r2,r2,128
  800784:	10bfe004 	addi	r2,r2,-128
  800788:	1000061e 	bne	r2,zero,8007a4 <logic+0x514>
  80078c:	e0bffc17 	ldw	r2,-16(fp)
  800790:	10803443 	ldbu	r2,209(r2)
  800794:	10803fcc 	andi	r2,r2,255
  800798:	1080201c 	xori	r2,r2,128
  80079c:	10bfe004 	addi	r2,r2,-128
  8007a0:	10000226 	beq	r2,zero,8007ac <logic+0x51c>
  8007a4:	00800044 	movi	r2,1
  8007a8:	00000106 	br	8007b0 <logic+0x520>
  8007ac:	0005883a 	mov	r2,zero
  8007b0:	1007883a 	mov	r3,r2
  8007b4:	e0bffc17 	ldw	r2,-16(fp)
  8007b8:	10c059c5 	stb	r3,359(r2)
  d->_g13 = d->_g10 && d->_cg12 || d->_g11 && d->_cg14;
  8007bc:	e0bffc17 	ldw	r2,-16(fp)
  8007c0:	10803803 	ldbu	r2,224(r2)
  8007c4:	10803fcc 	andi	r2,r2,255
  8007c8:	1080201c 	xori	r2,r2,128
  8007cc:	10bfe004 	addi	r2,r2,-128
  8007d0:	10000626 	beq	r2,zero,8007ec <logic+0x55c>
  8007d4:	e0bffc17 	ldw	r2,-16(fp)
  8007d8:	10805943 	ldbu	r2,357(r2)
  8007dc:	10803fcc 	andi	r2,r2,255
  8007e0:	1080201c 	xori	r2,r2,128
  8007e4:	10bfe004 	addi	r2,r2,-128
  8007e8:	10000c1e 	bne	r2,zero,80081c <logic+0x58c>
  8007ec:	e0bffc17 	ldw	r2,-16(fp)
  8007f0:	10803843 	ldbu	r2,225(r2)
  8007f4:	10803fcc 	andi	r2,r2,255
  8007f8:	1080201c 	xori	r2,r2,128
  8007fc:	10bfe004 	addi	r2,r2,-128
  800800:	10000826 	beq	r2,zero,800824 <logic+0x594>
  800804:	e0bffc17 	ldw	r2,-16(fp)
  800808:	108059c3 	ldbu	r2,359(r2)
  80080c:	10803fcc 	andi	r2,r2,255
  800810:	1080201c 	xori	r2,r2,128
  800814:	10bfe004 	addi	r2,r2,-128
  800818:	10000226 	beq	r2,zero,800824 <logic+0x594>
  80081c:	00800044 	movi	r2,1
  800820:	00000106 	br	800828 <logic+0x598>
  800824:	0005883a 	mov	r2,zero
  800828:	1007883a 	mov	r3,r2
  80082c:	e0bffc17 	ldw	r2,-16(fp)
  800830:	10c038c5 	stb	r3,227(r2)
  d->_g20 = !d->_g20;
  800834:	e0bffc17 	ldw	r2,-16(fp)
  800838:	108039c3 	ldbu	r2,231(r2)
  80083c:	10803fcc 	andi	r2,r2,255
  800840:	1080201c 	xori	r2,r2,128
  800844:	10bfe004 	addi	r2,r2,-128
  800848:	1005003a 	cmpeq	r2,r2,zero
  80084c:	1007883a 	mov	r3,r2
  800850:	e0bffc17 	ldw	r2,-16(fp)
  800854:	10c039c5 	stb	r3,231(r2)
  d->_g24 = d->_g21 || d->_g24;
  800858:	e0bffc17 	ldw	r2,-16(fp)
  80085c:	10803a03 	ldbu	r2,232(r2)
  800860:	10803fcc 	andi	r2,r2,255
  800864:	1080201c 	xori	r2,r2,128
  800868:	10bfe004 	addi	r2,r2,-128
  80086c:	1000061e 	bne	r2,zero,800888 <logic+0x5f8>
  800870:	e0bffc17 	ldw	r2,-16(fp)
  800874:	10803ac3 	ldbu	r2,235(r2)
  800878:	10803fcc 	andi	r2,r2,255
  80087c:	1080201c 	xori	r2,r2,128
  800880:	10bfe004 	addi	r2,r2,-128
  800884:	10000226 	beq	r2,zero,800890 <logic+0x600>
  800888:	00800044 	movi	r2,1
  80088c:	00000106 	br	800894 <logic+0x604>
  800890:	0005883a 	mov	r2,zero
  800894:	1007883a 	mov	r3,r2
  800898:	e0bffc17 	ldw	r2,-16(fp)
  80089c:	10c03ac5 	stb	r3,235(r2)
  d->_g21 = (d->_g13_e1 || d->_g13) && (d->_g20 || d->_g24) && (d->_g13 || d->_g24);
  8008a0:	e0bffc17 	ldw	r2,-16(fp)
  8008a4:	10806783 	ldbu	r2,414(r2)
  8008a8:	10803fcc 	andi	r2,r2,255
  8008ac:	1080201c 	xori	r2,r2,128
  8008b0:	10bfe004 	addi	r2,r2,-128
  8008b4:	1000061e 	bne	r2,zero,8008d0 <logic+0x640>
  8008b8:	e0bffc17 	ldw	r2,-16(fp)
  8008bc:	108038c3 	ldbu	r2,227(r2)
  8008c0:	10803fcc 	andi	r2,r2,255
  8008c4:	1080201c 	xori	r2,r2,128
  8008c8:	10bfe004 	addi	r2,r2,-128
  8008cc:	10001a26 	beq	r2,zero,800938 <logic+0x6a8>
  8008d0:	e0bffc17 	ldw	r2,-16(fp)
  8008d4:	108039c3 	ldbu	r2,231(r2)
  8008d8:	10803fcc 	andi	r2,r2,255
  8008dc:	1080201c 	xori	r2,r2,128
  8008e0:	10bfe004 	addi	r2,r2,-128
  8008e4:	1000061e 	bne	r2,zero,800900 <logic+0x670>
  8008e8:	e0bffc17 	ldw	r2,-16(fp)
  8008ec:	10803ac3 	ldbu	r2,235(r2)
  8008f0:	10803fcc 	andi	r2,r2,255
  8008f4:	1080201c 	xori	r2,r2,128
  8008f8:	10bfe004 	addi	r2,r2,-128
  8008fc:	10000e26 	beq	r2,zero,800938 <logic+0x6a8>
  800900:	e0bffc17 	ldw	r2,-16(fp)
  800904:	108038c3 	ldbu	r2,227(r2)
  800908:	10803fcc 	andi	r2,r2,255
  80090c:	1080201c 	xori	r2,r2,128
  800910:	10bfe004 	addi	r2,r2,-128
  800914:	1000061e 	bne	r2,zero,800930 <logic+0x6a0>
  800918:	e0bffc17 	ldw	r2,-16(fp)
  80091c:	10803ac3 	ldbu	r2,235(r2)
  800920:	10803fcc 	andi	r2,r2,255
  800924:	1080201c 	xori	r2,r2,128
  800928:	10bfe004 	addi	r2,r2,-128
  80092c:	10000226 	beq	r2,zero,800938 <logic+0x6a8>
  800930:	00800044 	movi	r2,1
  800934:	00000106 	br	80093c <logic+0x6ac>
  800938:	0005883a 	mov	r2,zero
  80093c:	1007883a 	mov	r3,r2
  800940:	e0bffc17 	ldw	r2,-16(fp)
  800944:	10c03a05 	stb	r3,232(r2)
  d->_cg25 = d->_Pacemaker_local__Atrig;
  800948:	e0bffc17 	ldw	r2,-16(fp)
  80094c:	10c03403 	ldbu	r3,208(r2)
  800950:	e0bffc17 	ldw	r2,-16(fp)
  800954:	10c05ac5 	stb	r3,363(r2)
  d->_g22 = d->_g21 && !d->_cg25;
  800958:	e0bffc17 	ldw	r2,-16(fp)
  80095c:	10803a03 	ldbu	r2,232(r2)
  800960:	10803fcc 	andi	r2,r2,255
  800964:	1080201c 	xori	r2,r2,128
  800968:	10bfe004 	addi	r2,r2,-128
  80096c:	10000826 	beq	r2,zero,800990 <logic+0x700>
  800970:	e0bffc17 	ldw	r2,-16(fp)
  800974:	10805ac3 	ldbu	r2,363(r2)
  800978:	10803fcc 	andi	r2,r2,255
  80097c:	1080201c 	xori	r2,r2,128
  800980:	10bfe004 	addi	r2,r2,-128
  800984:	1000021e 	bne	r2,zero,800990 <logic+0x700>
  800988:	00800044 	movi	r2,1
  80098c:	00000106 	br	800994 <logic+0x704>
  800990:	0005883a 	mov	r2,zero
  800994:	1007883a 	mov	r3,r2
  800998:	e0bffc17 	ldw	r2,-16(fp)
  80099c:	10c03a45 	stb	r3,233(r2)
  if (d->_g22) {
  8009a0:	e0bffc17 	ldw	r2,-16(fp)
  8009a4:	10803a43 	ldbu	r2,233(r2)
  8009a8:	10803fcc 	andi	r2,r2,255
  8009ac:	1080201c 	xori	r2,r2,128
  8009b0:	10bfe004 	addi	r2,r2,-128
  8009b4:	10000526 	beq	r2,zero,8009cc <logic+0x73c>
    d->_taken_transitions[3] += 1;
  8009b8:	e0bffc17 	ldw	r2,-16(fp)
  8009bc:	10800a17 	ldw	r2,40(r2)
  8009c0:	10c00044 	addi	r3,r2,1
  8009c4:	e0bffc17 	ldw	r2,-16(fp)
  8009c8:	10c00a15 	stw	r3,40(r2)
  }
  d->_g13 = d->_pg13_e1;
  8009cc:	e0bffc17 	ldw	r2,-16(fp)
  8009d0:	10c06bc3 	ldbu	r3,431(r2)
  8009d4:	e0bffc17 	ldw	r2,-16(fp)
  8009d8:	10c038c5 	stb	r3,227(r2)
  d->_g13_e1 = d->_GO || d->_g13;
  8009dc:	e0bffc17 	ldw	r2,-16(fp)
  8009e0:	10805803 	ldbu	r2,352(r2)
  8009e4:	10803fcc 	andi	r2,r2,255
  8009e8:	1080201c 	xori	r2,r2,128
  8009ec:	10bfe004 	addi	r2,r2,-128
  8009f0:	1000061e 	bne	r2,zero,800a0c <logic+0x77c>
  8009f4:	e0bffc17 	ldw	r2,-16(fp)
  8009f8:	108038c3 	ldbu	r2,227(r2)
  8009fc:	10803fcc 	andi	r2,r2,255
  800a00:	1080201c 	xori	r2,r2,128
  800a04:	10bfe004 	addi	r2,r2,-128
  800a08:	10000226 	beq	r2,zero,800a14 <logic+0x784>
  800a0c:	00800044 	movi	r2,1
  800a10:	00000106 	br	800a18 <logic+0x788>
  800a14:	0005883a 	mov	r2,zero
  800a18:	1007883a 	mov	r3,r2
  800a1c:	e0bffc17 	ldw	r2,-16(fp)
  800a20:	10c06785 	stb	r3,414(r2)
  if (d->_g13_e1) {
  800a24:	e0bffc17 	ldw	r2,-16(fp)
  800a28:	10806783 	ldbu	r2,414(r2)
  800a2c:	10803fcc 	andi	r2,r2,255
  800a30:	1080201c 	xori	r2,r2,128
  800a34:	10bfe004 	addi	r2,r2,-128
  800a38:	10000426 	beq	r2,zero,800a4c <logic+0x7bc>
    d->_pre_VP = d->_reg_VP;
  800a3c:	e0bffc17 	ldw	r2,-16(fp)
  800a40:	10c03383 	ldbu	r3,206(r2)
  800a44:	e0bffc17 	ldw	r2,-16(fp)
  800a48:	10c033c5 	stb	r3,207(r2)
  }
  d->_g22_e2 = d->_pg27;
  800a4c:	e0bffc17 	ldw	r2,-16(fp)
  800a50:	10c06c03 	ldbu	r3,432(r2)
  800a54:	e0bffc17 	ldw	r2,-16(fp)
  800a58:	10c067c5 	stb	r3,415(r2)
  d->_g217 = d->_g22_e2 && !d->VS;
  800a5c:	e0bffc17 	ldw	r2,-16(fp)
  800a60:	108067c3 	ldbu	r2,415(r2)
  800a64:	10803fcc 	andi	r2,r2,255
  800a68:	1080201c 	xori	r2,r2,128
  800a6c:	10bfe004 	addi	r2,r2,-128
  800a70:	10000826 	beq	r2,zero,800a94 <logic+0x804>
  800a74:	e0bffc17 	ldw	r2,-16(fp)
  800a78:	10803143 	ldbu	r2,197(r2)
  800a7c:	10803fcc 	andi	r2,r2,255
  800a80:	1080201c 	xori	r2,r2,128
  800a84:	10bfe004 	addi	r2,r2,-128
  800a88:	1000021e 	bne	r2,zero,800a94 <logic+0x804>
  800a8c:	00800044 	movi	r2,1
  800a90:	00000106 	br	800a98 <logic+0x808>
  800a94:	0005883a 	mov	r2,zero
  800a98:	1007883a 	mov	r3,r2
  800a9c:	e0bffc17 	ldw	r2,-16(fp)
  800aa0:	10c057c5 	stb	r3,351(r2)
  d->_cg28 = d->_pre_VP;
  800aa4:	e0bffc17 	ldw	r2,-16(fp)
  800aa8:	10c033c3 	ldbu	r3,207(r2)
  800aac:	e0bffc17 	ldw	r2,-16(fp)
  800ab0:	10c05845 	stb	r3,353(r2)
  d->_g27 = d->_GO || d->_g22 || d->_g217 && !d->_cg28;
  800ab4:	e0bffc17 	ldw	r2,-16(fp)
  800ab8:	10805803 	ldbu	r2,352(r2)
  800abc:	10803fcc 	andi	r2,r2,255
  800ac0:	1080201c 	xori	r2,r2,128
  800ac4:	10bfe004 	addi	r2,r2,-128
  800ac8:	1000121e 	bne	r2,zero,800b14 <logic+0x884>
  800acc:	e0bffc17 	ldw	r2,-16(fp)
  800ad0:	10803a43 	ldbu	r2,233(r2)
  800ad4:	10803fcc 	andi	r2,r2,255
  800ad8:	1080201c 	xori	r2,r2,128
  800adc:	10bfe004 	addi	r2,r2,-128
  800ae0:	10000c1e 	bne	r2,zero,800b14 <logic+0x884>
  800ae4:	e0bffc17 	ldw	r2,-16(fp)
  800ae8:	108057c3 	ldbu	r2,351(r2)
  800aec:	10803fcc 	andi	r2,r2,255
  800af0:	1080201c 	xori	r2,r2,128
  800af4:	10bfe004 	addi	r2,r2,-128
  800af8:	10000826 	beq	r2,zero,800b1c <logic+0x88c>
  800afc:	e0bffc17 	ldw	r2,-16(fp)
  800b00:	10805843 	ldbu	r2,353(r2)
  800b04:	10803fcc 	andi	r2,r2,255
  800b08:	1080201c 	xori	r2,r2,128
  800b0c:	10bfe004 	addi	r2,r2,-128
  800b10:	1000021e 	bne	r2,zero,800b1c <logic+0x88c>
  800b14:	00800044 	movi	r2,1
  800b18:	00000106 	br	800b20 <logic+0x890>
  800b1c:	0005883a 	mov	r2,zero
  800b20:	1007883a 	mov	r3,r2
  800b24:	e0bffc17 	ldw	r2,-16(fp)
  800b28:	10c03b85 	stb	r3,238(r2)
  d->AP = 0;
  800b2c:	e0bffc17 	ldw	r2,-16(fp)
  800b30:	10003185 	stb	zero,198(r2)
  d->VP = 0;
  800b34:	e0bffc17 	ldw	r2,-16(fp)
  800b38:	100031c5 	stb	zero,199(r2)
  d->A_EVT = 0;
  800b3c:	e0bffc17 	ldw	r2,-16(fp)
  800b40:	10003205 	stb	zero,200(r2)
  d->V_EVT = 0;
  800b44:	e0bffc17 	ldw	r2,-16(fp)
  800b48:	10003245 	stb	zero,201(r2)
  d->A_REFR = 0;
  800b4c:	e0bffc17 	ldw	r2,-16(fp)
  800b50:	10003285 	stb	zero,202(r2)
  d->V_REFR = 0;
  800b54:	e0bffc17 	ldw	r2,-16(fp)
  800b58:	100032c5 	stb	zero,203(r2)
  d->_g4 = d->_g22_e2 && d->VS;
  800b5c:	e0bffc17 	ldw	r2,-16(fp)
  800b60:	108067c3 	ldbu	r2,415(r2)
  800b64:	10803fcc 	andi	r2,r2,255
  800b68:	1080201c 	xori	r2,r2,128
  800b6c:	10bfe004 	addi	r2,r2,-128
  800b70:	10000826 	beq	r2,zero,800b94 <logic+0x904>
  800b74:	e0bffc17 	ldw	r2,-16(fp)
  800b78:	10803143 	ldbu	r2,197(r2)
  800b7c:	10803fcc 	andi	r2,r2,255
  800b80:	1080201c 	xori	r2,r2,128
  800b84:	10bfe004 	addi	r2,r2,-128
  800b88:	10000226 	beq	r2,zero,800b94 <logic+0x904>
  800b8c:	00800044 	movi	r2,1
  800b90:	00000106 	br	800b98 <logic+0x908>
  800b94:	0005883a 	mov	r2,zero
  800b98:	1007883a 	mov	r3,r2
  800b9c:	e0bffc17 	ldw	r2,-16(fp)
  800ba0:	10c03705 	stb	r3,220(r2)
  if (d->_g4) {
  800ba4:	e0bffc17 	ldw	r2,-16(fp)
  800ba8:	10803703 	ldbu	r2,220(r2)
  800bac:	10803fcc 	andi	r2,r2,255
  800bb0:	1080201c 	xori	r2,r2,128
  800bb4:	10bfe004 	addi	r2,r2,-128
  800bb8:	10000e26 	beq	r2,zero,800bf4 <logic+0x964>
    d->V_EVT |= 1;
  800bbc:	e0bffc17 	ldw	r2,-16(fp)
  800bc0:	10803243 	ldbu	r2,201(r2)
  800bc4:	10800054 	ori	r2,r2,1
  800bc8:	1007883a 	mov	r3,r2
  800bcc:	e0bffc17 	ldw	r2,-16(fp)
  800bd0:	10c03245 	stb	r3,201(r2)
    d->_region0_VRefrac_t = 0;
  800bd4:	e0bffc17 	ldw	r2,-16(fp)
  800bd8:	10002115 	stw	zero,132(r2)
  800bdc:	10002215 	stw	zero,136(r2)
    d->_taken_transitions[0] += 1;
  800be0:	e0bffc17 	ldw	r2,-16(fp)
  800be4:	10800717 	ldw	r2,28(r2)
  800be8:	10c00044 	addi	r3,r2,1
  800bec:	e0bffc17 	ldw	r2,-16(fp)
  800bf0:	10c00715 	stw	r3,28(r2)
  }
  d->_g25 = d->_g21 && d->_cg25;
  800bf4:	e0bffc17 	ldw	r2,-16(fp)
  800bf8:	10803a03 	ldbu	r2,232(r2)
  800bfc:	10803fcc 	andi	r2,r2,255
  800c00:	1080201c 	xori	r2,r2,128
  800c04:	10bfe004 	addi	r2,r2,-128
  800c08:	10000826 	beq	r2,zero,800c2c <logic+0x99c>
  800c0c:	e0bffc17 	ldw	r2,-16(fp)
  800c10:	10805ac3 	ldbu	r2,363(r2)
  800c14:	10803fcc 	andi	r2,r2,255
  800c18:	1080201c 	xori	r2,r2,128
  800c1c:	10bfe004 	addi	r2,r2,-128
  800c20:	10000226 	beq	r2,zero,800c2c <logic+0x99c>
  800c24:	00800044 	movi	r2,1
  800c28:	00000106 	br	800c30 <logic+0x9a0>
  800c2c:	0005883a 	mov	r2,zero
  800c30:	1007883a 	mov	r3,r2
  800c34:	e0bffc17 	ldw	r2,-16(fp)
  800c38:	10c03b05 	stb	r3,236(r2)
  if (d->_g25) {
  800c3c:	e0bffc17 	ldw	r2,-16(fp)
  800c40:	10803b03 	ldbu	r2,236(r2)
  800c44:	10803fcc 	andi	r2,r2,255
  800c48:	1080201c 	xori	r2,r2,128
  800c4c:	10bfe004 	addi	r2,r2,-128
  800c50:	10000b26 	beq	r2,zero,800c80 <logic+0x9f0>
    d->V_REFR |= 1;
  800c54:	e0bffc17 	ldw	r2,-16(fp)
  800c58:	108032c3 	ldbu	r2,203(r2)
  800c5c:	10800054 	ori	r2,r2,1
  800c60:	1007883a 	mov	r3,r2
  800c64:	e0bffc17 	ldw	r2,-16(fp)
  800c68:	10c032c5 	stb	r3,203(r2)
    d->_taken_transitions[2] += 1;
  800c6c:	e0bffc17 	ldw	r2,-16(fp)
  800c70:	10800917 	ldw	r2,36(r2)
  800c74:	10c00044 	addi	r3,r2,1
  800c78:	e0bffc17 	ldw	r2,-16(fp)
  800c7c:	10c00915 	stw	r3,36(r2)
  }
  d->_g28 = d->_g217 && d->_cg28;
  800c80:	e0bffc17 	ldw	r2,-16(fp)
  800c84:	108057c3 	ldbu	r2,351(r2)
  800c88:	10803fcc 	andi	r2,r2,255
  800c8c:	1080201c 	xori	r2,r2,128
  800c90:	10bfe004 	addi	r2,r2,-128
  800c94:	10000826 	beq	r2,zero,800cb8 <logic+0xa28>
  800c98:	e0bffc17 	ldw	r2,-16(fp)
  800c9c:	10805843 	ldbu	r2,353(r2)
  800ca0:	10803fcc 	andi	r2,r2,255
  800ca4:	1080201c 	xori	r2,r2,128
  800ca8:	10bfe004 	addi	r2,r2,-128
  800cac:	10000226 	beq	r2,zero,800cb8 <logic+0xa28>
  800cb0:	00800044 	movi	r2,1
  800cb4:	00000106 	br	800cbc <logic+0xa2c>
  800cb8:	0005883a 	mov	r2,zero
  800cbc:	1007883a 	mov	r3,r2
  800cc0:	e0bffc17 	ldw	r2,-16(fp)
  800cc4:	10c03bc5 	stb	r3,239(r2)
  if (d->_g28) {
  800cc8:	e0bffc17 	ldw	r2,-16(fp)
  800ccc:	10803bc3 	ldbu	r2,239(r2)
  800cd0:	10803fcc 	andi	r2,r2,255
  800cd4:	1080201c 	xori	r2,r2,128
  800cd8:	10bfe004 	addi	r2,r2,-128
  800cdc:	10000e26 	beq	r2,zero,800d18 <logic+0xa88>
    d->V_EVT |= 1;
  800ce0:	e0bffc17 	ldw	r2,-16(fp)
  800ce4:	10803243 	ldbu	r2,201(r2)
  800ce8:	10800054 	ori	r2,r2,1
  800cec:	1007883a 	mov	r3,r2
  800cf0:	e0bffc17 	ldw	r2,-16(fp)
  800cf4:	10c03245 	stb	r3,201(r2)
    d->_region0_VRefrac_t = 0;
  800cf8:	e0bffc17 	ldw	r2,-16(fp)
  800cfc:	10002115 	stw	zero,132(r2)
  800d00:	10002215 	stw	zero,136(r2)
    d->_taken_transitions[1] += 1;
  800d04:	e0bffc17 	ldw	r2,-16(fp)
  800d08:	10800817 	ldw	r2,32(r2)
  800d0c:	10c00044 	addi	r3,r2,1
  800d10:	e0bffc17 	ldw	r2,-16(fp)
  800d14:	10c00815 	stw	r3,32(r2)
  }
  d->_g26 = d->_g4 || d->_g25 || d->_g28;
  800d18:	e0bffc17 	ldw	r2,-16(fp)
  800d1c:	10803703 	ldbu	r2,220(r2)
  800d20:	10803fcc 	andi	r2,r2,255
  800d24:	1080201c 	xori	r2,r2,128
  800d28:	10bfe004 	addi	r2,r2,-128
  800d2c:	10000c1e 	bne	r2,zero,800d60 <logic+0xad0>
  800d30:	e0bffc17 	ldw	r2,-16(fp)
  800d34:	10803b03 	ldbu	r2,236(r2)
  800d38:	10803fcc 	andi	r2,r2,255
  800d3c:	1080201c 	xori	r2,r2,128
  800d40:	10bfe004 	addi	r2,r2,-128
  800d44:	1000061e 	bne	r2,zero,800d60 <logic+0xad0>
  800d48:	e0bffc17 	ldw	r2,-16(fp)
  800d4c:	10803bc3 	ldbu	r2,239(r2)
  800d50:	10803fcc 	andi	r2,r2,255
  800d54:	1080201c 	xori	r2,r2,128
  800d58:	10bfe004 	addi	r2,r2,-128
  800d5c:	10000226 	beq	r2,zero,800d68 <logic+0xad8>
  800d60:	00800044 	movi	r2,1
  800d64:	00000106 	br	800d6c <logic+0xadc>
  800d68:	0005883a 	mov	r2,zero
  800d6c:	1007883a 	mov	r3,r2
  800d70:	e0bffc17 	ldw	r2,-16(fp)
  800d74:	10c03b45 	stb	r3,237(r2)
  if (d->_g26) {
  800d78:	e0bffc17 	ldw	r2,-16(fp)
  800d7c:	10803b43 	ldbu	r2,237(r2)
  800d80:	10803fcc 	andi	r2,r2,255
  800d84:	1080201c 	xori	r2,r2,128
  800d88:	10bfe004 	addi	r2,r2,-128
  800d8c:	10000426 	beq	r2,zero,800da0 <logic+0xb10>
    d->_Pacemaker_local__Atrig = 0;
  800d90:	e0bffc17 	ldw	r2,-16(fp)
  800d94:	10003405 	stb	zero,208(r2)
    d->_Pacemaker_local__Atrig1 = 0;
  800d98:	e0bffc17 	ldw	r2,-16(fp)
  800d9c:	10003445 	stb	zero,209(r2)
  }
  d->_cg7 = d->_region0_VRefrac_t < d->T_VRP;
  800da0:	e0bffc17 	ldw	r2,-16(fp)
  800da4:	14002117 	ldw	r16,132(r2)
  800da8:	14402217 	ldw	r17,136(r2)
  800dac:	e0bffc17 	ldw	r2,-16(fp)
  800db0:	10800417 	ldw	r2,16(r2)
  800db4:	1009883a 	mov	r4,r2
  800db8:	0808e200 	call	808e20 <__floatsidf>
  800dbc:	1009883a 	mov	r4,r2
  800dc0:	180b883a 	mov	r5,r3
  800dc4:	04800044 	movi	r18,1
  800dc8:	200d883a 	mov	r6,r4
  800dcc:	280f883a 	mov	r7,r5
  800dd0:	8009883a 	mov	r4,r16
  800dd4:	880b883a 	mov	r5,r17
  800dd8:	0807d180 	call	807d18 <__ledf2>
  800ddc:	10000116 	blt	r2,zero,800de4 <logic+0xb54>
  800de0:	0025883a 	mov	r18,zero
  800de4:	9007883a 	mov	r3,r18
  800de8:	e0bffc17 	ldw	r2,-16(fp)
  800dec:	10c058c5 	stb	r3,355(r2)
  d->_g5 = d->_g26 && d->_cg7;
  800df0:	e0bffc17 	ldw	r2,-16(fp)
  800df4:	10803b43 	ldbu	r2,237(r2)
  800df8:	10803fcc 	andi	r2,r2,255
  800dfc:	1080201c 	xori	r2,r2,128
  800e00:	10bfe004 	addi	r2,r2,-128
  800e04:	10000826 	beq	r2,zero,800e28 <logic+0xb98>
  800e08:	e0bffc17 	ldw	r2,-16(fp)
  800e0c:	108058c3 	ldbu	r2,355(r2)
  800e10:	10803fcc 	andi	r2,r2,255
  800e14:	1080201c 	xori	r2,r2,128
  800e18:	10bfe004 	addi	r2,r2,-128
  800e1c:	10000226 	beq	r2,zero,800e28 <logic+0xb98>
  800e20:	00800044 	movi	r2,1
  800e24:	00000106 	br	800e2c <logic+0xb9c>
  800e28:	0005883a 	mov	r2,zero
  800e2c:	1007883a 	mov	r3,r2
  800e30:	e0bffc17 	ldw	r2,-16(fp)
  800e34:	10c03745 	stb	r3,221(r2)
  if (d->_g5) {
  800e38:	e0bffc17 	ldw	r2,-16(fp)
  800e3c:	10803743 	ldbu	r2,221(r2)
  800e40:	10803fcc 	andi	r2,r2,255
  800e44:	1080201c 	xori	r2,r2,128
  800e48:	10bfe004 	addi	r2,r2,-128
  800e4c:	10003426 	beq	r2,zero,800f20 <logic+0xc90>
    d->sleepT = (d->sleepT < (d->T_VRP - d->_region0_VRefrac_t)) ? d->sleepT : (d->T_VRP - d->_region0_VRefrac_t);
  800e50:	e0bffc17 	ldw	r2,-16(fp)
  800e54:	14002f17 	ldw	r16,188(r2)
  800e58:	14403017 	ldw	r17,192(r2)
  800e5c:	e0bffc17 	ldw	r2,-16(fp)
  800e60:	10800417 	ldw	r2,16(r2)
  800e64:	1009883a 	mov	r4,r2
  800e68:	0808e200 	call	808e20 <__floatsidf>
  800e6c:	1011883a 	mov	r8,r2
  800e70:	1813883a 	mov	r9,r3
  800e74:	e13ffc17 	ldw	r4,-16(fp)
  800e78:	20802117 	ldw	r2,132(r4)
  800e7c:	20c02217 	ldw	r3,136(r4)
  800e80:	100d883a 	mov	r6,r2
  800e84:	180f883a 	mov	r7,r3
  800e88:	4009883a 	mov	r4,r8
  800e8c:	480b883a 	mov	r5,r9
  800e90:	08085240 	call	808524 <__subdf3>
  800e94:	1009883a 	mov	r4,r2
  800e98:	180b883a 	mov	r5,r3
  800e9c:	2005883a 	mov	r2,r4
  800ea0:	2807883a 	mov	r3,r5
  800ea4:	100d883a 	mov	r6,r2
  800ea8:	180f883a 	mov	r7,r3
  800eac:	8009883a 	mov	r4,r16
  800eb0:	880b883a 	mov	r5,r17
  800eb4:	0807d180 	call	807d18 <__ledf2>
  800eb8:	1000040e 	bge	r2,zero,800ecc <logic+0xc3c>
  800ebc:	e13ffc17 	ldw	r4,-16(fp)
  800ec0:	20802f17 	ldw	r2,188(r4)
  800ec4:	20c03017 	ldw	r3,192(r4)
  800ec8:	00001206 	br	800f14 <logic+0xc84>
  800ecc:	e0bffc17 	ldw	r2,-16(fp)
  800ed0:	10800417 	ldw	r2,16(r2)
  800ed4:	1009883a 	mov	r4,r2
  800ed8:	0808e200 	call	808e20 <__floatsidf>
  800edc:	1011883a 	mov	r8,r2
  800ee0:	1813883a 	mov	r9,r3
  800ee4:	e13ffc17 	ldw	r4,-16(fp)
  800ee8:	20802117 	ldw	r2,132(r4)
  800eec:	20c02217 	ldw	r3,136(r4)
  800ef0:	100d883a 	mov	r6,r2
  800ef4:	180f883a 	mov	r7,r3
  800ef8:	4009883a 	mov	r4,r8
  800efc:	480b883a 	mov	r5,r9
  800f00:	08085240 	call	808524 <__subdf3>
  800f04:	1009883a 	mov	r4,r2
  800f08:	180b883a 	mov	r5,r3
  800f0c:	2005883a 	mov	r2,r4
  800f10:	2807883a 	mov	r3,r5
  800f14:	e13ffc17 	ldw	r4,-16(fp)
  800f18:	20802f15 	stw	r2,188(r4)
  800f1c:	20c03015 	stw	r3,192(r4)
  }
  d->_cg8 = d->_Pacemaker_local__Atrig || d->_Pacemaker_local__Atrig1;
  800f20:	e0bffc17 	ldw	r2,-16(fp)
  800f24:	10803403 	ldbu	r2,208(r2)
  800f28:	10803fcc 	andi	r2,r2,255
  800f2c:	1080201c 	xori	r2,r2,128
  800f30:	10bfe004 	addi	r2,r2,-128
  800f34:	1000061e 	bne	r2,zero,800f50 <logic+0xcc0>
  800f38:	e0bffc17 	ldw	r2,-16(fp)
  800f3c:	10803443 	ldbu	r2,209(r2)
  800f40:	10803fcc 	andi	r2,r2,255
  800f44:	1080201c 	xori	r2,r2,128
  800f48:	10bfe004 	addi	r2,r2,-128
  800f4c:	10000226 	beq	r2,zero,800f58 <logic+0xcc8>
  800f50:	00800044 	movi	r2,1
  800f54:	00000106 	br	800f5c <logic+0xccc>
  800f58:	0005883a 	mov	r2,zero
  800f5c:	1007883a 	mov	r3,r2
  800f60:	e0bffc17 	ldw	r2,-16(fp)
  800f64:	10c05905 	stb	r3,356(r2)
  d->_g29 = d->_g5 && !d->_cg8 || d->_g10 && !d->_cg12;
  800f68:	e0bffc17 	ldw	r2,-16(fp)
  800f6c:	10803743 	ldbu	r2,221(r2)
  800f70:	10803fcc 	andi	r2,r2,255
  800f74:	1080201c 	xori	r2,r2,128
  800f78:	10bfe004 	addi	r2,r2,-128
  800f7c:	10000626 	beq	r2,zero,800f98 <logic+0xd08>
  800f80:	e0bffc17 	ldw	r2,-16(fp)
  800f84:	10805903 	ldbu	r2,356(r2)
  800f88:	10803fcc 	andi	r2,r2,255
  800f8c:	1080201c 	xori	r2,r2,128
  800f90:	10bfe004 	addi	r2,r2,-128
  800f94:	10000c26 	beq	r2,zero,800fc8 <logic+0xd38>
  800f98:	e0bffc17 	ldw	r2,-16(fp)
  800f9c:	10803803 	ldbu	r2,224(r2)
  800fa0:	10803fcc 	andi	r2,r2,255
  800fa4:	1080201c 	xori	r2,r2,128
  800fa8:	10bfe004 	addi	r2,r2,-128
  800fac:	10000826 	beq	r2,zero,800fd0 <logic+0xd40>
  800fb0:	e0bffc17 	ldw	r2,-16(fp)
  800fb4:	10805943 	ldbu	r2,357(r2)
  800fb8:	10803fcc 	andi	r2,r2,255
  800fbc:	1080201c 	xori	r2,r2,128
  800fc0:	10bfe004 	addi	r2,r2,-128
  800fc4:	1000021e 	bne	r2,zero,800fd0 <logic+0xd40>
  800fc8:	00800044 	movi	r2,1
  800fcc:	00000106 	br	800fd4 <logic+0xd44>
  800fd0:	0005883a 	mov	r2,zero
  800fd4:	1007883a 	mov	r3,r2
  800fd8:	e0bffc17 	ldw	r2,-16(fp)
  800fdc:	10c03c05 	stb	r3,240(r2)
  d->_g12 = d->_g26 && !d->_cg7;
  800fe0:	e0bffc17 	ldw	r2,-16(fp)
  800fe4:	10803b43 	ldbu	r2,237(r2)
  800fe8:	10803fcc 	andi	r2,r2,255
  800fec:	1080201c 	xori	r2,r2,128
  800ff0:	10bfe004 	addi	r2,r2,-128
  800ff4:	10000826 	beq	r2,zero,801018 <logic+0xd88>
  800ff8:	e0bffc17 	ldw	r2,-16(fp)
  800ffc:	108058c3 	ldbu	r2,355(r2)
  801000:	10803fcc 	andi	r2,r2,255
  801004:	1080201c 	xori	r2,r2,128
  801008:	10bfe004 	addi	r2,r2,-128
  80100c:	1000021e 	bne	r2,zero,801018 <logic+0xd88>
  801010:	00800044 	movi	r2,1
  801014:	00000106 	br	80101c <logic+0xd8c>
  801018:	0005883a 	mov	r2,zero
  80101c:	1007883a 	mov	r3,r2
  801020:	e0bffc17 	ldw	r2,-16(fp)
  801024:	10c03885 	stb	r3,226(r2)
  d->_cg17 = d->_Pacemaker_local__Atrig || d->_Pacemaker_local__Atrig1;
  801028:	e0bffc17 	ldw	r2,-16(fp)
  80102c:	10803403 	ldbu	r2,208(r2)
  801030:	10803fcc 	andi	r2,r2,255
  801034:	1080201c 	xori	r2,r2,128
  801038:	10bfe004 	addi	r2,r2,-128
  80103c:	1000061e 	bne	r2,zero,801058 <logic+0xdc8>
  801040:	e0bffc17 	ldw	r2,-16(fp)
  801044:	10803443 	ldbu	r2,209(r2)
  801048:	10803fcc 	andi	r2,r2,255
  80104c:	1080201c 	xori	r2,r2,128
  801050:	10bfe004 	addi	r2,r2,-128
  801054:	10000226 	beq	r2,zero,801060 <logic+0xdd0>
  801058:	00800044 	movi	r2,1
  80105c:	00000106 	br	801064 <logic+0xdd4>
  801060:	0005883a 	mov	r2,zero
  801064:	1007883a 	mov	r3,r2
  801068:	e0bffc17 	ldw	r2,-16(fp)
  80106c:	10c05a05 	stb	r3,360(r2)
  d->_g8 = d->_g11 && !d->_cg14 || d->_g12 && !d->_cg17;
  801070:	e0bffc17 	ldw	r2,-16(fp)
  801074:	10803843 	ldbu	r2,225(r2)
  801078:	10803fcc 	andi	r2,r2,255
  80107c:	1080201c 	xori	r2,r2,128
  801080:	10bfe004 	addi	r2,r2,-128
  801084:	10000626 	beq	r2,zero,8010a0 <logic+0xe10>
  801088:	e0bffc17 	ldw	r2,-16(fp)
  80108c:	108059c3 	ldbu	r2,359(r2)
  801090:	10803fcc 	andi	r2,r2,255
  801094:	1080201c 	xori	r2,r2,128
  801098:	10bfe004 	addi	r2,r2,-128
  80109c:	10000c26 	beq	r2,zero,8010d0 <logic+0xe40>
  8010a0:	e0bffc17 	ldw	r2,-16(fp)
  8010a4:	10803883 	ldbu	r2,226(r2)
  8010a8:	10803fcc 	andi	r2,r2,255
  8010ac:	1080201c 	xori	r2,r2,128
  8010b0:	10bfe004 	addi	r2,r2,-128
  8010b4:	10000826 	beq	r2,zero,8010d8 <logic+0xe48>
  8010b8:	e0bffc17 	ldw	r2,-16(fp)
  8010bc:	10805a03 	ldbu	r2,360(r2)
  8010c0:	10803fcc 	andi	r2,r2,255
  8010c4:	1080201c 	xori	r2,r2,128
  8010c8:	10bfe004 	addi	r2,r2,-128
  8010cc:	1000021e 	bne	r2,zero,8010d8 <logic+0xe48>
  8010d0:	00800044 	movi	r2,1
  8010d4:	00000106 	br	8010dc <logic+0xe4c>
  8010d8:	0005883a 	mov	r2,zero
  8010dc:	1007883a 	mov	r3,r2
  8010e0:	e0bffc17 	ldw	r2,-16(fp)
  8010e4:	10c037c5 	stb	r3,223(r2)
  d->_g17 = d->_g26 || d->_g23 && !d->_cg23;
  8010e8:	e0bffc17 	ldw	r2,-16(fp)
  8010ec:	10803b43 	ldbu	r2,237(r2)
  8010f0:	10803fcc 	andi	r2,r2,255
  8010f4:	1080201c 	xori	r2,r2,128
  8010f8:	10bfe004 	addi	r2,r2,-128
  8010fc:	10000c1e 	bne	r2,zero,801130 <logic+0xea0>
  801100:	e0bffc17 	ldw	r2,-16(fp)
  801104:	10803a83 	ldbu	r2,234(r2)
  801108:	10803fcc 	andi	r2,r2,255
  80110c:	1080201c 	xori	r2,r2,128
  801110:	10bfe004 	addi	r2,r2,-128
  801114:	10000826 	beq	r2,zero,801138 <logic+0xea8>
  801118:	e0bffc17 	ldw	r2,-16(fp)
  80111c:	10805a43 	ldbu	r2,361(r2)
  801120:	10803fcc 	andi	r2,r2,255
  801124:	1080201c 	xori	r2,r2,128
  801128:	10bfe004 	addi	r2,r2,-128
  80112c:	1000021e 	bne	r2,zero,801138 <logic+0xea8>
  801130:	00800044 	movi	r2,1
  801134:	00000106 	br	80113c <logic+0xeac>
  801138:	0005883a 	mov	r2,zero
  80113c:	1007883a 	mov	r3,r2
  801140:	e0bffc17 	ldw	r2,-16(fp)
  801144:	10c03985 	stb	r3,230(r2)
  d->_g14 = d->_pg37;
  801148:	e0bffc17 	ldw	r2,-16(fp)
  80114c:	10c06c43 	ldbu	r3,433(r2)
  801150:	e0bffc17 	ldw	r2,-16(fp)
  801154:	10c03905 	stb	r3,228(r2)
  d->_g23 = d->_pg34;
  801158:	e0bffc17 	ldw	r2,-16(fp)
  80115c:	10c06c83 	ldbu	r3,434(r2)
  801160:	e0bffc17 	ldw	r2,-16(fp)
  801164:	10c03a85 	stb	r3,234(r2)
  d->_g6 = !(d->_g14 || d->_g23);
  801168:	e0bffc17 	ldw	r2,-16(fp)
  80116c:	10803903 	ldbu	r2,228(r2)
  801170:	10803fcc 	andi	r2,r2,255
  801174:	1080201c 	xori	r2,r2,128
  801178:	10bfe004 	addi	r2,r2,-128
  80117c:	1000081e 	bne	r2,zero,8011a0 <logic+0xf10>
  801180:	e0bffc17 	ldw	r2,-16(fp)
  801184:	10803a83 	ldbu	r2,234(r2)
  801188:	10803fcc 	andi	r2,r2,255
  80118c:	1080201c 	xori	r2,r2,128
  801190:	10bfe004 	addi	r2,r2,-128
  801194:	1000021e 	bne	r2,zero,8011a0 <logic+0xf10>
  801198:	00800044 	movi	r2,1
  80119c:	00000106 	br	8011a4 <logic+0xf14>
  8011a0:	0005883a 	mov	r2,zero
  8011a4:	1007883a 	mov	r3,r2
  8011a8:	e0bffc17 	ldw	r2,-16(fp)
  8011ac:	10c03785 	stb	r3,222(r2)
  d->_g49 = d->_pg41;
  8011b0:	e0bffc17 	ldw	r2,-16(fp)
  8011b4:	10c06cc3 	ldbu	r3,435(r2)
  8011b8:	e0bffc17 	ldw	r2,-16(fp)
  8011bc:	10c03f05 	stb	r3,252(r2)
  d->_g50 = d->_g49 && d->AS;
  8011c0:	e0bffc17 	ldw	r2,-16(fp)
  8011c4:	10803f03 	ldbu	r2,252(r2)
  8011c8:	10803fcc 	andi	r2,r2,255
  8011cc:	1080201c 	xori	r2,r2,128
  8011d0:	10bfe004 	addi	r2,r2,-128
  8011d4:	10000826 	beq	r2,zero,8011f8 <logic+0xf68>
  8011d8:	e0bffc17 	ldw	r2,-16(fp)
  8011dc:	10803103 	ldbu	r2,196(r2)
  8011e0:	10803fcc 	andi	r2,r2,255
  8011e4:	1080201c 	xori	r2,r2,128
  8011e8:	10bfe004 	addi	r2,r2,-128
  8011ec:	10000226 	beq	r2,zero,8011f8 <logic+0xf68>
  8011f0:	00800044 	movi	r2,1
  8011f4:	00000106 	br	8011fc <logic+0xf6c>
  8011f8:	0005883a 	mov	r2,zero
  8011fc:	1007883a 	mov	r3,r2
  801200:	e0bffc17 	ldw	r2,-16(fp)
  801204:	10c03f45 	stb	r3,253(r2)
  if (d->_g50) {
  801208:	e0bffc17 	ldw	r2,-16(fp)
  80120c:	10803f43 	ldbu	r2,253(r2)
  801210:	10803fcc 	andi	r2,r2,255
  801214:	1080201c 	xori	r2,r2,128
  801218:	10bfe004 	addi	r2,r2,-128
  80121c:	10000326 	beq	r2,zero,80122c <logic+0xf9c>
    d->_Pacemaker_local__Atrig2 = 1;
  801220:	e0bffc17 	ldw	r2,-16(fp)
  801224:	00c00044 	movi	r3,1
  801228:	10c03485 	stb	r3,210(r2)
  }
  d->_g185 = d->_pg154;
  80122c:	e0bffc17 	ldw	r2,-16(fp)
  801230:	10c06d03 	ldbu	r3,436(r2)
  801234:	e0bffc17 	ldw	r2,-16(fp)
  801238:	10c05705 	stb	r3,348(r2)
  if (d->_g185) {
  80123c:	e0bffc17 	ldw	r2,-16(fp)
  801240:	10805703 	ldbu	r2,348(r2)
  801244:	10803fcc 	andi	r2,r2,255
  801248:	1080201c 	xori	r2,r2,128
  80124c:	10bfe004 	addi	r2,r2,-128
  801250:	10001226 	beq	r2,zero,80129c <logic+0x100c>
    d->_region1_ARefrac_t += d->deltaT;
  801254:	e13ffc17 	ldw	r4,-16(fp)
  801258:	20802317 	ldw	r2,140(r4)
  80125c:	20c02417 	ldw	r3,144(r4)
  801260:	e1bffc17 	ldw	r6,-16(fp)
  801264:	31002d17 	ldw	r4,180(r6)
  801268:	31402e17 	ldw	r5,184(r6)
  80126c:	200d883a 	mov	r6,r4
  801270:	280f883a 	mov	r7,r5
  801274:	1009883a 	mov	r4,r2
  801278:	180b883a 	mov	r5,r3
  80127c:	0806aa80 	call	806aa8 <__adddf3>
  801280:	1009883a 	mov	r4,r2
  801284:	180b883a 	mov	r5,r3
  801288:	2005883a 	mov	r2,r4
  80128c:	2807883a 	mov	r3,r5
  801290:	e13ffc17 	ldw	r4,-16(fp)
  801294:	20802315 	stw	r2,140(r4)
  801298:	20c02415 	stw	r3,144(r4)
  }
  d->_g52 = d->_g49 && !d->AS;
  80129c:	e0bffc17 	ldw	r2,-16(fp)
  8012a0:	10803f03 	ldbu	r2,252(r2)
  8012a4:	10803fcc 	andi	r2,r2,255
  8012a8:	1080201c 	xori	r2,r2,128
  8012ac:	10bfe004 	addi	r2,r2,-128
  8012b0:	10000826 	beq	r2,zero,8012d4 <logic+0x1044>
  8012b4:	e0bffc17 	ldw	r2,-16(fp)
  8012b8:	10803103 	ldbu	r2,196(r2)
  8012bc:	10803fcc 	andi	r2,r2,255
  8012c0:	1080201c 	xori	r2,r2,128
  8012c4:	10bfe004 	addi	r2,r2,-128
  8012c8:	1000021e 	bne	r2,zero,8012d4 <logic+0x1044>
  8012cc:	00800044 	movi	r2,1
  8012d0:	00000106 	br	8012d8 <logic+0x1048>
  8012d4:	0005883a 	mov	r2,zero
  8012d8:	1007883a 	mov	r3,r2
  8012dc:	e0bffc17 	ldw	r2,-16(fp)
  8012e0:	10c03fc5 	stb	r3,255(r2)
  d->_cg52 = d->_region1_ARefrac_t >= d->T_PVAR;
  8012e4:	e0bffc17 	ldw	r2,-16(fp)
  8012e8:	14002317 	ldw	r16,140(r2)
  8012ec:	14402417 	ldw	r17,144(r2)
  8012f0:	e0bffc17 	ldw	r2,-16(fp)
  8012f4:	10800317 	ldw	r2,12(r2)
  8012f8:	1009883a 	mov	r4,r2
  8012fc:	0808e200 	call	808e20 <__floatsidf>
  801300:	1009883a 	mov	r4,r2
  801304:	180b883a 	mov	r5,r3
  801308:	04800044 	movi	r18,1
  80130c:	200d883a 	mov	r6,r4
  801310:	280f883a 	mov	r7,r5
  801314:	8009883a 	mov	r4,r16
  801318:	880b883a 	mov	r5,r17
  80131c:	0807c3c0 	call	807c3c <__gedf2>
  801320:	1000010e 	bge	r2,zero,801328 <logic+0x1098>
  801324:	0025883a 	mov	r18,zero
  801328:	9007883a 	mov	r3,r18
  80132c:	e0bffc17 	ldw	r2,-16(fp)
  801330:	10c05d05 	stb	r3,372(r2)
  d->_g53 = d->_g52 && d->_cg52;
  801334:	e0bffc17 	ldw	r2,-16(fp)
  801338:	10803fc3 	ldbu	r2,255(r2)
  80133c:	10803fcc 	andi	r2,r2,255
  801340:	1080201c 	xori	r2,r2,128
  801344:	10bfe004 	addi	r2,r2,-128
  801348:	10000826 	beq	r2,zero,80136c <logic+0x10dc>
  80134c:	e0bffc17 	ldw	r2,-16(fp)
  801350:	10805d03 	ldbu	r2,372(r2)
  801354:	10803fcc 	andi	r2,r2,255
  801358:	1080201c 	xori	r2,r2,128
  80135c:	10bfe004 	addi	r2,r2,-128
  801360:	10000226 	beq	r2,zero,80136c <logic+0x10dc>
  801364:	00800044 	movi	r2,1
  801368:	00000106 	br	801370 <logic+0x10e0>
  80136c:	0005883a 	mov	r2,zero
  801370:	1007883a 	mov	r3,r2
  801374:	e0bffc17 	ldw	r2,-16(fp)
  801378:	10c04005 	stb	r3,256(r2)
  if (d->_g53) {
  80137c:	e0bffc17 	ldw	r2,-16(fp)
  801380:	10804003 	ldbu	r2,256(r2)
  801384:	10803fcc 	andi	r2,r2,255
  801388:	1080201c 	xori	r2,r2,128
  80138c:	10bfe004 	addi	r2,r2,-128
  801390:	10000326 	beq	r2,zero,8013a0 <logic+0x1110>
    d->_Pacemaker_local__Atrig3 = 1;
  801394:	e0bffc17 	ldw	r2,-16(fp)
  801398:	00c00044 	movi	r3,1
  80139c:	10c034c5 	stb	r3,211(r2)
  }
  d->_g45 = d->_g23 || d->_g14;
  8013a0:	e0bffc17 	ldw	r2,-16(fp)
  8013a4:	10803a83 	ldbu	r2,234(r2)
  8013a8:	10803fcc 	andi	r2,r2,255
  8013ac:	1080201c 	xori	r2,r2,128
  8013b0:	10bfe004 	addi	r2,r2,-128
  8013b4:	1000061e 	bne	r2,zero,8013d0 <logic+0x1140>
  8013b8:	e0bffc17 	ldw	r2,-16(fp)
  8013bc:	10803903 	ldbu	r2,228(r2)
  8013c0:	10803fcc 	andi	r2,r2,255
  8013c4:	1080201c 	xori	r2,r2,128
  8013c8:	10bfe004 	addi	r2,r2,-128
  8013cc:	10000226 	beq	r2,zero,8013d8 <logic+0x1148>
  8013d0:	00800044 	movi	r2,1
  8013d4:	00000106 	br	8013dc <logic+0x114c>
  8013d8:	0005883a 	mov	r2,zero
  8013dc:	1007883a 	mov	r3,r2
  8013e0:	e0bffc17 	ldw	r2,-16(fp)
  8013e4:	10c03e85 	stb	r3,250(r2)
  d->_cg40 = d->_region1_ARefrac_t < d->T_PVAR;
  8013e8:	e0bffc17 	ldw	r2,-16(fp)
  8013ec:	14002317 	ldw	r16,140(r2)
  8013f0:	14402417 	ldw	r17,144(r2)
  8013f4:	e0bffc17 	ldw	r2,-16(fp)
  8013f8:	10800317 	ldw	r2,12(r2)
  8013fc:	1009883a 	mov	r4,r2
  801400:	0808e200 	call	808e20 <__floatsidf>
  801404:	1009883a 	mov	r4,r2
  801408:	180b883a 	mov	r5,r3
  80140c:	04800044 	movi	r18,1
  801410:	200d883a 	mov	r6,r4
  801414:	280f883a 	mov	r7,r5
  801418:	8009883a 	mov	r4,r16
  80141c:	880b883a 	mov	r5,r17
  801420:	0807d180 	call	807d18 <__ledf2>
  801424:	10000116 	blt	r2,zero,80142c <logic+0x119c>
  801428:	0025883a 	mov	r18,zero
  80142c:	9007883a 	mov	r3,r18
  801430:	e0bffc17 	ldw	r2,-16(fp)
  801434:	10c05c45 	stb	r3,369(r2)
  d->_g39 = d->_g45 && d->_cg40;
  801438:	e0bffc17 	ldw	r2,-16(fp)
  80143c:	10803e83 	ldbu	r2,250(r2)
  801440:	10803fcc 	andi	r2,r2,255
  801444:	1080201c 	xori	r2,r2,128
  801448:	10bfe004 	addi	r2,r2,-128
  80144c:	10000826 	beq	r2,zero,801470 <logic+0x11e0>
  801450:	e0bffc17 	ldw	r2,-16(fp)
  801454:	10805c43 	ldbu	r2,369(r2)
  801458:	10803fcc 	andi	r2,r2,255
  80145c:	1080201c 	xori	r2,r2,128
  801460:	10bfe004 	addi	r2,r2,-128
  801464:	10000226 	beq	r2,zero,801470 <logic+0x11e0>
  801468:	00800044 	movi	r2,1
  80146c:	00000106 	br	801474 <logic+0x11e4>
  801470:	0005883a 	mov	r2,zero
  801474:	1007883a 	mov	r3,r2
  801478:	e0bffc17 	ldw	r2,-16(fp)
  80147c:	10c03d45 	stb	r3,245(r2)
  if (d->_g39) {
  801480:	e0bffc17 	ldw	r2,-16(fp)
  801484:	10803d43 	ldbu	r2,245(r2)
  801488:	10803fcc 	andi	r2,r2,255
  80148c:	1080201c 	xori	r2,r2,128
  801490:	10bfe004 	addi	r2,r2,-128
  801494:	10003426 	beq	r2,zero,801568 <logic+0x12d8>
    d->sleepT = (d->sleepT < (d->T_PVAR - d->_region1_ARefrac_t)) ? d->sleepT : (d->T_PVAR - d->_region1_ARefrac_t);
  801498:	e0bffc17 	ldw	r2,-16(fp)
  80149c:	14002f17 	ldw	r16,188(r2)
  8014a0:	14403017 	ldw	r17,192(r2)
  8014a4:	e0bffc17 	ldw	r2,-16(fp)
  8014a8:	10800317 	ldw	r2,12(r2)
  8014ac:	1009883a 	mov	r4,r2
  8014b0:	0808e200 	call	808e20 <__floatsidf>
  8014b4:	1011883a 	mov	r8,r2
  8014b8:	1813883a 	mov	r9,r3
  8014bc:	e13ffc17 	ldw	r4,-16(fp)
  8014c0:	20802317 	ldw	r2,140(r4)
  8014c4:	20c02417 	ldw	r3,144(r4)
  8014c8:	100d883a 	mov	r6,r2
  8014cc:	180f883a 	mov	r7,r3
  8014d0:	4009883a 	mov	r4,r8
  8014d4:	480b883a 	mov	r5,r9
  8014d8:	08085240 	call	808524 <__subdf3>
  8014dc:	1009883a 	mov	r4,r2
  8014e0:	180b883a 	mov	r5,r3
  8014e4:	2005883a 	mov	r2,r4
  8014e8:	2807883a 	mov	r3,r5
  8014ec:	100d883a 	mov	r6,r2
  8014f0:	180f883a 	mov	r7,r3
  8014f4:	8009883a 	mov	r4,r16
  8014f8:	880b883a 	mov	r5,r17
  8014fc:	0807d180 	call	807d18 <__ledf2>
  801500:	1000040e 	bge	r2,zero,801514 <logic+0x1284>
  801504:	e13ffc17 	ldw	r4,-16(fp)
  801508:	20802f17 	ldw	r2,188(r4)
  80150c:	20c03017 	ldw	r3,192(r4)
  801510:	00001206 	br	80155c <logic+0x12cc>
  801514:	e0bffc17 	ldw	r2,-16(fp)
  801518:	10800317 	ldw	r2,12(r2)
  80151c:	1009883a 	mov	r4,r2
  801520:	0808e200 	call	808e20 <__floatsidf>
  801524:	1011883a 	mov	r8,r2
  801528:	1813883a 	mov	r9,r3
  80152c:	e13ffc17 	ldw	r4,-16(fp)
  801530:	20802317 	ldw	r2,140(r4)
  801534:	20c02417 	ldw	r3,144(r4)
  801538:	100d883a 	mov	r6,r2
  80153c:	180f883a 	mov	r7,r3
  801540:	4009883a 	mov	r4,r8
  801544:	480b883a 	mov	r5,r9
  801548:	08085240 	call	808524 <__subdf3>
  80154c:	1009883a 	mov	r4,r2
  801550:	180b883a 	mov	r5,r3
  801554:	2005883a 	mov	r2,r4
  801558:	2807883a 	mov	r3,r5
  80155c:	e13ffc17 	ldw	r4,-16(fp)
  801560:	20802f15 	stw	r2,188(r4)
  801564:	20c03015 	stw	r3,192(r4)
  }
  d->_cg41 = d->_Pacemaker_local__Atrig2 || d->_Pacemaker_local__Atrig3;
  801568:	e0bffc17 	ldw	r2,-16(fp)
  80156c:	10803483 	ldbu	r2,210(r2)
  801570:	10803fcc 	andi	r2,r2,255
  801574:	1080201c 	xori	r2,r2,128
  801578:	10bfe004 	addi	r2,r2,-128
  80157c:	1000061e 	bne	r2,zero,801598 <logic+0x1308>
  801580:	e0bffc17 	ldw	r2,-16(fp)
  801584:	108034c3 	ldbu	r2,211(r2)
  801588:	10803fcc 	andi	r2,r2,255
  80158c:	1080201c 	xori	r2,r2,128
  801590:	10bfe004 	addi	r2,r2,-128
  801594:	10000226 	beq	r2,zero,8015a0 <logic+0x1310>
  801598:	00800044 	movi	r2,1
  80159c:	00000106 	br	8015a4 <logic+0x1314>
  8015a0:	0005883a 	mov	r2,zero
  8015a4:	1007883a 	mov	r3,r2
  8015a8:	e0bffc17 	ldw	r2,-16(fp)
  8015ac:	10c05c05 	stb	r3,368(r2)
  d->_g40 = d->_g45 && !d->_cg40;
  8015b0:	e0bffc17 	ldw	r2,-16(fp)
  8015b4:	10803e83 	ldbu	r2,250(r2)
  8015b8:	10803fcc 	andi	r2,r2,255
  8015bc:	1080201c 	xori	r2,r2,128
  8015c0:	10bfe004 	addi	r2,r2,-128
  8015c4:	10000826 	beq	r2,zero,8015e8 <logic+0x1358>
  8015c8:	e0bffc17 	ldw	r2,-16(fp)
  8015cc:	10805c43 	ldbu	r2,369(r2)
  8015d0:	10803fcc 	andi	r2,r2,255
  8015d4:	1080201c 	xori	r2,r2,128
  8015d8:	10bfe004 	addi	r2,r2,-128
  8015dc:	1000021e 	bne	r2,zero,8015e8 <logic+0x1358>
  8015e0:	00800044 	movi	r2,1
  8015e4:	00000106 	br	8015ec <logic+0x135c>
  8015e8:	0005883a 	mov	r2,zero
  8015ec:	1007883a 	mov	r3,r2
  8015f0:	e0bffc17 	ldw	r2,-16(fp)
  8015f4:	10c03d85 	stb	r3,246(r2)
  d->_cg43 = d->_Pacemaker_local__Atrig2 || d->_Pacemaker_local__Atrig3;
  8015f8:	e0bffc17 	ldw	r2,-16(fp)
  8015fc:	10803483 	ldbu	r2,210(r2)
  801600:	10803fcc 	andi	r2,r2,255
  801604:	1080201c 	xori	r2,r2,128
  801608:	10bfe004 	addi	r2,r2,-128
  80160c:	1000061e 	bne	r2,zero,801628 <logic+0x1398>
  801610:	e0bffc17 	ldw	r2,-16(fp)
  801614:	108034c3 	ldbu	r2,211(r2)
  801618:	10803fcc 	andi	r2,r2,255
  80161c:	1080201c 	xori	r2,r2,128
  801620:	10bfe004 	addi	r2,r2,-128
  801624:	10000226 	beq	r2,zero,801630 <logic+0x13a0>
  801628:	00800044 	movi	r2,1
  80162c:	00000106 	br	801634 <logic+0x13a4>
  801630:	0005883a 	mov	r2,zero
  801634:	1007883a 	mov	r3,r2
  801638:	e0bffc17 	ldw	r2,-16(fp)
  80163c:	10c05c85 	stb	r3,370(r2)
  d->_g42 = d->_g39 && d->_cg41 || d->_g40 && d->_cg43;
  801640:	e0bffc17 	ldw	r2,-16(fp)
  801644:	10803d43 	ldbu	r2,245(r2)
  801648:	10803fcc 	andi	r2,r2,255
  80164c:	1080201c 	xori	r2,r2,128
  801650:	10bfe004 	addi	r2,r2,-128
  801654:	10000626 	beq	r2,zero,801670 <logic+0x13e0>
  801658:	e0bffc17 	ldw	r2,-16(fp)
  80165c:	10805c03 	ldbu	r2,368(r2)
  801660:	10803fcc 	andi	r2,r2,255
  801664:	1080201c 	xori	r2,r2,128
  801668:	10bfe004 	addi	r2,r2,-128
  80166c:	10000c1e 	bne	r2,zero,8016a0 <logic+0x1410>
  801670:	e0bffc17 	ldw	r2,-16(fp)
  801674:	10803d83 	ldbu	r2,246(r2)
  801678:	10803fcc 	andi	r2,r2,255
  80167c:	1080201c 	xori	r2,r2,128
  801680:	10bfe004 	addi	r2,r2,-128
  801684:	10000826 	beq	r2,zero,8016a8 <logic+0x1418>
  801688:	e0bffc17 	ldw	r2,-16(fp)
  80168c:	10805c83 	ldbu	r2,370(r2)
  801690:	10803fcc 	andi	r2,r2,255
  801694:	1080201c 	xori	r2,r2,128
  801698:	10bfe004 	addi	r2,r2,-128
  80169c:	10000226 	beq	r2,zero,8016a8 <logic+0x1418>
  8016a0:	00800044 	movi	r2,1
  8016a4:	00000106 	br	8016ac <logic+0x141c>
  8016a8:	0005883a 	mov	r2,zero
  8016ac:	1007883a 	mov	r3,r2
  8016b0:	e0bffc17 	ldw	r2,-16(fp)
  8016b4:	10c03e05 	stb	r3,248(r2)
  d->_g49 = !d->_g49;
  8016b8:	e0bffc17 	ldw	r2,-16(fp)
  8016bc:	10803f03 	ldbu	r2,252(r2)
  8016c0:	10803fcc 	andi	r2,r2,255
  8016c4:	1080201c 	xori	r2,r2,128
  8016c8:	10bfe004 	addi	r2,r2,-128
  8016cc:	1005003a 	cmpeq	r2,r2,zero
  8016d0:	1007883a 	mov	r3,r2
  8016d4:	e0bffc17 	ldw	r2,-16(fp)
  8016d8:	10c03f05 	stb	r3,252(r2)
  d->_g53 = d->_g50 || d->_g53;
  8016dc:	e0bffc17 	ldw	r2,-16(fp)
  8016e0:	10803f43 	ldbu	r2,253(r2)
  8016e4:	10803fcc 	andi	r2,r2,255
  8016e8:	1080201c 	xori	r2,r2,128
  8016ec:	10bfe004 	addi	r2,r2,-128
  8016f0:	1000061e 	bne	r2,zero,80170c <logic+0x147c>
  8016f4:	e0bffc17 	ldw	r2,-16(fp)
  8016f8:	10804003 	ldbu	r2,256(r2)
  8016fc:	10803fcc 	andi	r2,r2,255
  801700:	1080201c 	xori	r2,r2,128
  801704:	10bfe004 	addi	r2,r2,-128
  801708:	10000226 	beq	r2,zero,801714 <logic+0x1484>
  80170c:	00800044 	movi	r2,1
  801710:	00000106 	br	801718 <logic+0x1488>
  801714:	0005883a 	mov	r2,zero
  801718:	1007883a 	mov	r3,r2
  80171c:	e0bffc17 	ldw	r2,-16(fp)
  801720:	10c04005 	stb	r3,256(r2)
  d->_g50 = (d->_g6 || d->_g42) && (d->_g49 || d->_g53) && (d->_g42 || d->_g53);
  801724:	e0bffc17 	ldw	r2,-16(fp)
  801728:	10803783 	ldbu	r2,222(r2)
  80172c:	10803fcc 	andi	r2,r2,255
  801730:	1080201c 	xori	r2,r2,128
  801734:	10bfe004 	addi	r2,r2,-128
  801738:	1000061e 	bne	r2,zero,801754 <logic+0x14c4>
  80173c:	e0bffc17 	ldw	r2,-16(fp)
  801740:	10803e03 	ldbu	r2,248(r2)
  801744:	10803fcc 	andi	r2,r2,255
  801748:	1080201c 	xori	r2,r2,128
  80174c:	10bfe004 	addi	r2,r2,-128
  801750:	10001a26 	beq	r2,zero,8017bc <logic+0x152c>
  801754:	e0bffc17 	ldw	r2,-16(fp)
  801758:	10803f03 	ldbu	r2,252(r2)
  80175c:	10803fcc 	andi	r2,r2,255
  801760:	1080201c 	xori	r2,r2,128
  801764:	10bfe004 	addi	r2,r2,-128
  801768:	1000061e 	bne	r2,zero,801784 <logic+0x14f4>
  80176c:	e0bffc17 	ldw	r2,-16(fp)
  801770:	10804003 	ldbu	r2,256(r2)
  801774:	10803fcc 	andi	r2,r2,255
  801778:	1080201c 	xori	r2,r2,128
  80177c:	10bfe004 	addi	r2,r2,-128
  801780:	10000e26 	beq	r2,zero,8017bc <logic+0x152c>
  801784:	e0bffc17 	ldw	r2,-16(fp)
  801788:	10803e03 	ldbu	r2,248(r2)
  80178c:	10803fcc 	andi	r2,r2,255
  801790:	1080201c 	xori	r2,r2,128
  801794:	10bfe004 	addi	r2,r2,-128
  801798:	1000061e 	bne	r2,zero,8017b4 <logic+0x1524>
  80179c:	e0bffc17 	ldw	r2,-16(fp)
  8017a0:	10804003 	ldbu	r2,256(r2)
  8017a4:	10803fcc 	andi	r2,r2,255
  8017a8:	1080201c 	xori	r2,r2,128
  8017ac:	10bfe004 	addi	r2,r2,-128
  8017b0:	10000226 	beq	r2,zero,8017bc <logic+0x152c>
  8017b4:	00800044 	movi	r2,1
  8017b8:	00000106 	br	8017c0 <logic+0x1530>
  8017bc:	0005883a 	mov	r2,zero
  8017c0:	1007883a 	mov	r3,r2
  8017c4:	e0bffc17 	ldw	r2,-16(fp)
  8017c8:	10c03f45 	stb	r3,253(r2)
  d->_cg54 = d->_Pacemaker_local__Atrig2;
  8017cc:	e0bffc17 	ldw	r2,-16(fp)
  8017d0:	10c03483 	ldbu	r3,210(r2)
  8017d4:	e0bffc17 	ldw	r2,-16(fp)
  8017d8:	10c05d85 	stb	r3,374(r2)
  d->_g51 = d->_g50 && !d->_cg54;
  8017dc:	e0bffc17 	ldw	r2,-16(fp)
  8017e0:	10803f43 	ldbu	r2,253(r2)
  8017e4:	10803fcc 	andi	r2,r2,255
  8017e8:	1080201c 	xori	r2,r2,128
  8017ec:	10bfe004 	addi	r2,r2,-128
  8017f0:	10000826 	beq	r2,zero,801814 <logic+0x1584>
  8017f4:	e0bffc17 	ldw	r2,-16(fp)
  8017f8:	10805d83 	ldbu	r2,374(r2)
  8017fc:	10803fcc 	andi	r2,r2,255
  801800:	1080201c 	xori	r2,r2,128
  801804:	10bfe004 	addi	r2,r2,-128
  801808:	1000021e 	bne	r2,zero,801814 <logic+0x1584>
  80180c:	00800044 	movi	r2,1
  801810:	00000106 	br	801818 <logic+0x1588>
  801814:	0005883a 	mov	r2,zero
  801818:	1007883a 	mov	r3,r2
  80181c:	e0bffc17 	ldw	r2,-16(fp)
  801820:	10c03f85 	stb	r3,254(r2)
  if (d->_g51) {
  801824:	e0bffc17 	ldw	r2,-16(fp)
  801828:	10803f83 	ldbu	r2,254(r2)
  80182c:	10803fcc 	andi	r2,r2,255
  801830:	1080201c 	xori	r2,r2,128
  801834:	10bfe004 	addi	r2,r2,-128
  801838:	10000526 	beq	r2,zero,801850 <logic+0x15c0>
    d->_taken_transitions[9] += 1;
  80183c:	e0bffc17 	ldw	r2,-16(fp)
  801840:	10801017 	ldw	r2,64(r2)
  801844:	10c00044 	addi	r3,r2,1
  801848:	e0bffc17 	ldw	r2,-16(fp)
  80184c:	10c01015 	stw	r3,64(r2)
  }
  d->_g42 = d->_pg52;
  801850:	e0bffc17 	ldw	r2,-16(fp)
  801854:	10c06d43 	ldbu	r3,437(r2)
  801858:	e0bffc17 	ldw	r2,-16(fp)
  80185c:	10c03e05 	stb	r3,248(r2)
  if (d->_g42) {
  801860:	e0bffc17 	ldw	r2,-16(fp)
  801864:	10803e03 	ldbu	r2,248(r2)
  801868:	10803fcc 	andi	r2,r2,255
  80186c:	1080201c 	xori	r2,r2,128
  801870:	10bfe004 	addi	r2,r2,-128
  801874:	10000b26 	beq	r2,zero,8018a4 <logic+0x1614>
    d->A_EVT |= 1;
  801878:	e0bffc17 	ldw	r2,-16(fp)
  80187c:	10803203 	ldbu	r2,200(r2)
  801880:	10800054 	ori	r2,r2,1
  801884:	1007883a 	mov	r3,r2
  801888:	e0bffc17 	ldw	r2,-16(fp)
  80188c:	10c03205 	stb	r3,200(r2)
    d->_taken_transitions[10] += 1;
  801890:	e0bffc17 	ldw	r2,-16(fp)
  801894:	10801117 	ldw	r2,68(r2)
  801898:	10c00044 	addi	r3,r2,1
  80189c:	e0bffc17 	ldw	r2,-16(fp)
  8018a0:	10c01115 	stw	r3,68(r2)
  }
  d->_g51_e2 = d->_pg42_e1;
  8018a4:	e0bffc17 	ldw	r2,-16(fp)
  8018a8:	10c06d83 	ldbu	r3,438(r2)
  8018ac:	e0bffc17 	ldw	r2,-16(fp)
  8018b0:	10c06845 	stb	r3,417(r2)
  d->_g42_e1 = d->_GO || d->_g51_e2;
  8018b4:	e0bffc17 	ldw	r2,-16(fp)
  8018b8:	10805803 	ldbu	r2,352(r2)
  8018bc:	10803fcc 	andi	r2,r2,255
  8018c0:	1080201c 	xori	r2,r2,128
  8018c4:	10bfe004 	addi	r2,r2,-128
  8018c8:	1000061e 	bne	r2,zero,8018e4 <logic+0x1654>
  8018cc:	e0bffc17 	ldw	r2,-16(fp)
  8018d0:	10806843 	ldbu	r2,417(r2)
  8018d4:	10803fcc 	andi	r2,r2,255
  8018d8:	1080201c 	xori	r2,r2,128
  8018dc:	10bfe004 	addi	r2,r2,-128
  8018e0:	10000226 	beq	r2,zero,8018ec <logic+0x165c>
  8018e4:	00800044 	movi	r2,1
  8018e8:	00000106 	br	8018f0 <logic+0x1660>
  8018ec:	0005883a 	mov	r2,zero
  8018f0:	1007883a 	mov	r3,r2
  8018f4:	e0bffc17 	ldw	r2,-16(fp)
  8018f8:	10c06805 	stb	r3,416(r2)
  if (d->_g42_e1) {
  8018fc:	e0bffc17 	ldw	r2,-16(fp)
  801900:	10806803 	ldbu	r2,416(r2)
  801904:	10803fcc 	andi	r2,r2,255
  801908:	1080201c 	xori	r2,r2,128
  80190c:	10bfe004 	addi	r2,r2,-128
  801910:	10000426 	beq	r2,zero,801924 <logic+0x1694>
    d->_pre_AP = d->_reg_AP;
  801914:	e0bffc17 	ldw	r2,-16(fp)
  801918:	10c03303 	ldbu	r3,204(r2)
  80191c:	e0bffc17 	ldw	r2,-16(fp)
  801920:	10c03345 	stb	r3,205(r2)
  }
  d->_g213 = d->_pg62;
  801924:	e0bffc17 	ldw	r2,-16(fp)
  801928:	10c06dc3 	ldbu	r3,439(r2)
  80192c:	e0bffc17 	ldw	r2,-16(fp)
  801930:	10c05785 	stb	r3,350(r2)
  d->_g57 = d->_g213 && !d->VS;
  801934:	e0bffc17 	ldw	r2,-16(fp)
  801938:	10805783 	ldbu	r2,350(r2)
  80193c:	10803fcc 	andi	r2,r2,255
  801940:	1080201c 	xori	r2,r2,128
  801944:	10bfe004 	addi	r2,r2,-128
  801948:	10000826 	beq	r2,zero,80196c <logic+0x16dc>
  80194c:	e0bffc17 	ldw	r2,-16(fp)
  801950:	10803143 	ldbu	r2,197(r2)
  801954:	10803fcc 	andi	r2,r2,255
  801958:	1080201c 	xori	r2,r2,128
  80195c:	10bfe004 	addi	r2,r2,-128
  801960:	1000021e 	bne	r2,zero,80196c <logic+0x16dc>
  801964:	00800044 	movi	r2,1
  801968:	00000106 	br	801970 <logic+0x16e0>
  80196c:	0005883a 	mov	r2,zero
  801970:	1007883a 	mov	r3,r2
  801974:	e0bffc17 	ldw	r2,-16(fp)
  801978:	10c04105 	stb	r3,260(r2)
  d->_cg57 = d->_pre_VP;
  80197c:	e0bffc17 	ldw	r2,-16(fp)
  801980:	10c033c3 	ldbu	r3,207(r2)
  801984:	e0bffc17 	ldw	r2,-16(fp)
  801988:	10c05dc5 	stb	r3,375(r2)
  d->_g59 = d->_g57 && !d->_cg57;
  80198c:	e0bffc17 	ldw	r2,-16(fp)
  801990:	10804103 	ldbu	r2,260(r2)
  801994:	10803fcc 	andi	r2,r2,255
  801998:	1080201c 	xori	r2,r2,128
  80199c:	10bfe004 	addi	r2,r2,-128
  8019a0:	10000826 	beq	r2,zero,8019c4 <logic+0x1734>
  8019a4:	e0bffc17 	ldw	r2,-16(fp)
  8019a8:	10805dc3 	ldbu	r2,375(r2)
  8019ac:	10803fcc 	andi	r2,r2,255
  8019b0:	1080201c 	xori	r2,r2,128
  8019b4:	10bfe004 	addi	r2,r2,-128
  8019b8:	1000021e 	bne	r2,zero,8019c4 <logic+0x1734>
  8019bc:	00800044 	movi	r2,1
  8019c0:	00000106 	br	8019c8 <logic+0x1738>
  8019c4:	0005883a 	mov	r2,zero
  8019c8:	1007883a 	mov	r3,r2
  8019cc:	e0bffc17 	ldw	r2,-16(fp)
  8019d0:	10c04185 	stb	r3,262(r2)
  d->_g63 = d->_g59 && !d->AS;
  8019d4:	e0bffc17 	ldw	r2,-16(fp)
  8019d8:	10804183 	ldbu	r2,262(r2)
  8019dc:	10803fcc 	andi	r2,r2,255
  8019e0:	1080201c 	xori	r2,r2,128
  8019e4:	10bfe004 	addi	r2,r2,-128
  8019e8:	10000826 	beq	r2,zero,801a0c <logic+0x177c>
  8019ec:	e0bffc17 	ldw	r2,-16(fp)
  8019f0:	10803103 	ldbu	r2,196(r2)
  8019f4:	10803fcc 	andi	r2,r2,255
  8019f8:	1080201c 	xori	r2,r2,128
  8019fc:	10bfe004 	addi	r2,r2,-128
  801a00:	1000021e 	bne	r2,zero,801a0c <logic+0x177c>
  801a04:	00800044 	movi	r2,1
  801a08:	00000106 	br	801a10 <logic+0x1780>
  801a0c:	0005883a 	mov	r2,zero
  801a10:	1007883a 	mov	r3,r2
  801a14:	e0bffc17 	ldw	r2,-16(fp)
  801a18:	10c04245 	stb	r3,265(r2)
  d->_cg63 = d->_pre_AP;
  801a1c:	e0bffc17 	ldw	r2,-16(fp)
  801a20:	10c03343 	ldbu	r3,205(r2)
  801a24:	e0bffc17 	ldw	r2,-16(fp)
  801a28:	10c05b05 	stb	r3,364(r2)
  d->_g62 = d->_GO || d->_g51 || d->_g42 || d->_g63 && !d->_cg63;
  801a2c:	e0bffc17 	ldw	r2,-16(fp)
  801a30:	10805803 	ldbu	r2,352(r2)
  801a34:	10803fcc 	andi	r2,r2,255
  801a38:	1080201c 	xori	r2,r2,128
  801a3c:	10bfe004 	addi	r2,r2,-128
  801a40:	1000181e 	bne	r2,zero,801aa4 <logic+0x1814>
  801a44:	e0bffc17 	ldw	r2,-16(fp)
  801a48:	10803f83 	ldbu	r2,254(r2)
  801a4c:	10803fcc 	andi	r2,r2,255
  801a50:	1080201c 	xori	r2,r2,128
  801a54:	10bfe004 	addi	r2,r2,-128
  801a58:	1000121e 	bne	r2,zero,801aa4 <logic+0x1814>
  801a5c:	e0bffc17 	ldw	r2,-16(fp)
  801a60:	10803e03 	ldbu	r2,248(r2)
  801a64:	10803fcc 	andi	r2,r2,255
  801a68:	1080201c 	xori	r2,r2,128
  801a6c:	10bfe004 	addi	r2,r2,-128
  801a70:	10000c1e 	bne	r2,zero,801aa4 <logic+0x1814>
  801a74:	e0bffc17 	ldw	r2,-16(fp)
  801a78:	10804243 	ldbu	r2,265(r2)
  801a7c:	10803fcc 	andi	r2,r2,255
  801a80:	1080201c 	xori	r2,r2,128
  801a84:	10bfe004 	addi	r2,r2,-128
  801a88:	10000826 	beq	r2,zero,801aac <logic+0x181c>
  801a8c:	e0bffc17 	ldw	r2,-16(fp)
  801a90:	10805b03 	ldbu	r2,364(r2)
  801a94:	10803fcc 	andi	r2,r2,255
  801a98:	1080201c 	xori	r2,r2,128
  801a9c:	10bfe004 	addi	r2,r2,-128
  801aa0:	1000021e 	bne	r2,zero,801aac <logic+0x181c>
  801aa4:	00800044 	movi	r2,1
  801aa8:	00000106 	br	801ab0 <logic+0x1820>
  801aac:	0005883a 	mov	r2,zero
  801ab0:	1007883a 	mov	r3,r2
  801ab4:	e0bffc17 	ldw	r2,-16(fp)
  801ab8:	10c04205 	stb	r3,264(r2)
  d->_g56 = d->_g213 && d->VS;
  801abc:	e0bffc17 	ldw	r2,-16(fp)
  801ac0:	10805783 	ldbu	r2,350(r2)
  801ac4:	10803fcc 	andi	r2,r2,255
  801ac8:	1080201c 	xori	r2,r2,128
  801acc:	10bfe004 	addi	r2,r2,-128
  801ad0:	10000826 	beq	r2,zero,801af4 <logic+0x1864>
  801ad4:	e0bffc17 	ldw	r2,-16(fp)
  801ad8:	10803143 	ldbu	r2,197(r2)
  801adc:	10803fcc 	andi	r2,r2,255
  801ae0:	1080201c 	xori	r2,r2,128
  801ae4:	10bfe004 	addi	r2,r2,-128
  801ae8:	10000226 	beq	r2,zero,801af4 <logic+0x1864>
  801aec:	00800044 	movi	r2,1
  801af0:	00000106 	br	801af8 <logic+0x1868>
  801af4:	0005883a 	mov	r2,zero
  801af8:	1007883a 	mov	r3,r2
  801afc:	e0bffc17 	ldw	r2,-16(fp)
  801b00:	10c040c5 	stb	r3,259(r2)
  if (d->_g56) {
  801b04:	e0bffc17 	ldw	r2,-16(fp)
  801b08:	108040c3 	ldbu	r2,259(r2)
  801b0c:	10803fcc 	andi	r2,r2,255
  801b10:	1080201c 	xori	r2,r2,128
  801b14:	10bfe004 	addi	r2,r2,-128
  801b18:	10000826 	beq	r2,zero,801b3c <logic+0x18ac>
    d->_region1_ARefrac_t = 0;
  801b1c:	e0bffc17 	ldw	r2,-16(fp)
  801b20:	10002315 	stw	zero,140(r2)
  801b24:	10002415 	stw	zero,144(r2)
    d->_taken_transitions[4] += 1;
  801b28:	e0bffc17 	ldw	r2,-16(fp)
  801b2c:	10800b17 	ldw	r2,44(r2)
  801b30:	10c00044 	addi	r3,r2,1
  801b34:	e0bffc17 	ldw	r2,-16(fp)
  801b38:	10c00b15 	stw	r3,44(r2)
  }
  d->_g33 = d->_g50 && d->_cg54;
  801b3c:	e0bffc17 	ldw	r2,-16(fp)
  801b40:	10803f43 	ldbu	r2,253(r2)
  801b44:	10803fcc 	andi	r2,r2,255
  801b48:	1080201c 	xori	r2,r2,128
  801b4c:	10bfe004 	addi	r2,r2,-128
  801b50:	10000826 	beq	r2,zero,801b74 <logic+0x18e4>
  801b54:	e0bffc17 	ldw	r2,-16(fp)
  801b58:	10805d83 	ldbu	r2,374(r2)
  801b5c:	10803fcc 	andi	r2,r2,255
  801b60:	1080201c 	xori	r2,r2,128
  801b64:	10bfe004 	addi	r2,r2,-128
  801b68:	10000226 	beq	r2,zero,801b74 <logic+0x18e4>
  801b6c:	00800044 	movi	r2,1
  801b70:	00000106 	br	801b78 <logic+0x18e8>
  801b74:	0005883a 	mov	r2,zero
  801b78:	1007883a 	mov	r3,r2
  801b7c:	e0bffc17 	ldw	r2,-16(fp)
  801b80:	10c03c45 	stb	r3,241(r2)
  if (d->_g33) {
  801b84:	e0bffc17 	ldw	r2,-16(fp)
  801b88:	10803c43 	ldbu	r2,241(r2)
  801b8c:	10803fcc 	andi	r2,r2,255
  801b90:	1080201c 	xori	r2,r2,128
  801b94:	10bfe004 	addi	r2,r2,-128
  801b98:	10000b26 	beq	r2,zero,801bc8 <logic+0x1938>
    d->A_REFR |= 1;
  801b9c:	e0bffc17 	ldw	r2,-16(fp)
  801ba0:	10803283 	ldbu	r2,202(r2)
  801ba4:	10800054 	ori	r2,r2,1
  801ba8:	1007883a 	mov	r3,r2
  801bac:	e0bffc17 	ldw	r2,-16(fp)
  801bb0:	10c03285 	stb	r3,202(r2)
    d->_taken_transitions[8] += 1;
  801bb4:	e0bffc17 	ldw	r2,-16(fp)
  801bb8:	10800f17 	ldw	r2,60(r2)
  801bbc:	10c00044 	addi	r3,r2,1
  801bc0:	e0bffc17 	ldw	r2,-16(fp)
  801bc4:	10c00f15 	stw	r3,60(r2)
  }
  d->_g54 = d->_g57 && d->_cg57;
  801bc8:	e0bffc17 	ldw	r2,-16(fp)
  801bcc:	10804103 	ldbu	r2,260(r2)
  801bd0:	10803fcc 	andi	r2,r2,255
  801bd4:	1080201c 	xori	r2,r2,128
  801bd8:	10bfe004 	addi	r2,r2,-128
  801bdc:	10000826 	beq	r2,zero,801c00 <logic+0x1970>
  801be0:	e0bffc17 	ldw	r2,-16(fp)
  801be4:	10805dc3 	ldbu	r2,375(r2)
  801be8:	10803fcc 	andi	r2,r2,255
  801bec:	1080201c 	xori	r2,r2,128
  801bf0:	10bfe004 	addi	r2,r2,-128
  801bf4:	10000226 	beq	r2,zero,801c00 <logic+0x1970>
  801bf8:	00800044 	movi	r2,1
  801bfc:	00000106 	br	801c04 <logic+0x1974>
  801c00:	0005883a 	mov	r2,zero
  801c04:	1007883a 	mov	r3,r2
  801c08:	e0bffc17 	ldw	r2,-16(fp)
  801c0c:	10c04045 	stb	r3,257(r2)
  if (d->_g54) {
  801c10:	e0bffc17 	ldw	r2,-16(fp)
  801c14:	10804043 	ldbu	r2,257(r2)
  801c18:	10803fcc 	andi	r2,r2,255
  801c1c:	1080201c 	xori	r2,r2,128
  801c20:	10bfe004 	addi	r2,r2,-128
  801c24:	10000826 	beq	r2,zero,801c48 <logic+0x19b8>
    d->_region1_ARefrac_t = 0;
  801c28:	e0bffc17 	ldw	r2,-16(fp)
  801c2c:	10002315 	stw	zero,140(r2)
  801c30:	10002415 	stw	zero,144(r2)
    d->_taken_transitions[5] += 1;
  801c34:	e0bffc17 	ldw	r2,-16(fp)
  801c38:	10800c17 	ldw	r2,48(r2)
  801c3c:	10c00044 	addi	r3,r2,1
  801c40:	e0bffc17 	ldw	r2,-16(fp)
  801c44:	10c00c15 	stw	r3,48(r2)
  }
  d->_g57 = d->_g56 || d->_g33 || d->_g54;
  801c48:	e0bffc17 	ldw	r2,-16(fp)
  801c4c:	108040c3 	ldbu	r2,259(r2)
  801c50:	10803fcc 	andi	r2,r2,255
  801c54:	1080201c 	xori	r2,r2,128
  801c58:	10bfe004 	addi	r2,r2,-128
  801c5c:	10000c1e 	bne	r2,zero,801c90 <logic+0x1a00>
  801c60:	e0bffc17 	ldw	r2,-16(fp)
  801c64:	10803c43 	ldbu	r2,241(r2)
  801c68:	10803fcc 	andi	r2,r2,255
  801c6c:	1080201c 	xori	r2,r2,128
  801c70:	10bfe004 	addi	r2,r2,-128
  801c74:	1000061e 	bne	r2,zero,801c90 <logic+0x1a00>
  801c78:	e0bffc17 	ldw	r2,-16(fp)
  801c7c:	10804043 	ldbu	r2,257(r2)
  801c80:	10803fcc 	andi	r2,r2,255
  801c84:	1080201c 	xori	r2,r2,128
  801c88:	10bfe004 	addi	r2,r2,-128
  801c8c:	10000226 	beq	r2,zero,801c98 <logic+0x1a08>
  801c90:	00800044 	movi	r2,1
  801c94:	00000106 	br	801c9c <logic+0x1a0c>
  801c98:	0005883a 	mov	r2,zero
  801c9c:	1007883a 	mov	r3,r2
  801ca0:	e0bffc17 	ldw	r2,-16(fp)
  801ca4:	10c04105 	stb	r3,260(r2)
  if (d->_g57) {
  801ca8:	e0bffc17 	ldw	r2,-16(fp)
  801cac:	10804103 	ldbu	r2,260(r2)
  801cb0:	10803fcc 	andi	r2,r2,255
  801cb4:	1080201c 	xori	r2,r2,128
  801cb8:	10bfe004 	addi	r2,r2,-128
  801cbc:	10000426 	beq	r2,zero,801cd0 <logic+0x1a40>
    d->_Pacemaker_local__Atrig2 = 0;
  801cc0:	e0bffc17 	ldw	r2,-16(fp)
  801cc4:	10003485 	stb	zero,210(r2)
    d->_Pacemaker_local__Atrig3 = 0;
  801cc8:	e0bffc17 	ldw	r2,-16(fp)
  801ccc:	100034c5 	stb	zero,211(r2)
  }
  d->_cg36 = d->_region1_ARefrac_t < d->T_PVAR;
  801cd0:	e0bffc17 	ldw	r2,-16(fp)
  801cd4:	14002317 	ldw	r16,140(r2)
  801cd8:	14402417 	ldw	r17,144(r2)
  801cdc:	e0bffc17 	ldw	r2,-16(fp)
  801ce0:	10800317 	ldw	r2,12(r2)
  801ce4:	1009883a 	mov	r4,r2
  801ce8:	0808e200 	call	808e20 <__floatsidf>
  801cec:	1009883a 	mov	r4,r2
  801cf0:	180b883a 	mov	r5,r3
  801cf4:	04800044 	movi	r18,1
  801cf8:	200d883a 	mov	r6,r4
  801cfc:	280f883a 	mov	r7,r5
  801d00:	8009883a 	mov	r4,r16
  801d04:	880b883a 	mov	r5,r17
  801d08:	0807d180 	call	807d18 <__ledf2>
  801d0c:	10000116 	blt	r2,zero,801d14 <logic+0x1a84>
  801d10:	0025883a 	mov	r18,zero
  801d14:	9007883a 	mov	r3,r18
  801d18:	e0bffc17 	ldw	r2,-16(fp)
  801d1c:	10c05b85 	stb	r3,366(r2)
  d->_g55 = d->_g57 && d->_cg36;
  801d20:	e0bffc17 	ldw	r2,-16(fp)
  801d24:	10804103 	ldbu	r2,260(r2)
  801d28:	10803fcc 	andi	r2,r2,255
  801d2c:	1080201c 	xori	r2,r2,128
  801d30:	10bfe004 	addi	r2,r2,-128
  801d34:	10000826 	beq	r2,zero,801d58 <logic+0x1ac8>
  801d38:	e0bffc17 	ldw	r2,-16(fp)
  801d3c:	10805b83 	ldbu	r2,366(r2)
  801d40:	10803fcc 	andi	r2,r2,255
  801d44:	1080201c 	xori	r2,r2,128
  801d48:	10bfe004 	addi	r2,r2,-128
  801d4c:	10000226 	beq	r2,zero,801d58 <logic+0x1ac8>
  801d50:	00800044 	movi	r2,1
  801d54:	00000106 	br	801d5c <logic+0x1acc>
  801d58:	0005883a 	mov	r2,zero
  801d5c:	1007883a 	mov	r3,r2
  801d60:	e0bffc17 	ldw	r2,-16(fp)
  801d64:	10c04085 	stb	r3,258(r2)
  if (d->_g55) {
  801d68:	e0bffc17 	ldw	r2,-16(fp)
  801d6c:	10804083 	ldbu	r2,258(r2)
  801d70:	10803fcc 	andi	r2,r2,255
  801d74:	1080201c 	xori	r2,r2,128
  801d78:	10bfe004 	addi	r2,r2,-128
  801d7c:	10003426 	beq	r2,zero,801e50 <logic+0x1bc0>
    d->sleepT = (d->sleepT < (d->T_PVAR - d->_region1_ARefrac_t)) ? d->sleepT : (d->T_PVAR - d->_region1_ARefrac_t);
  801d80:	e0bffc17 	ldw	r2,-16(fp)
  801d84:	14002f17 	ldw	r16,188(r2)
  801d88:	14403017 	ldw	r17,192(r2)
  801d8c:	e0bffc17 	ldw	r2,-16(fp)
  801d90:	10800317 	ldw	r2,12(r2)
  801d94:	1009883a 	mov	r4,r2
  801d98:	0808e200 	call	808e20 <__floatsidf>
  801d9c:	1011883a 	mov	r8,r2
  801da0:	1813883a 	mov	r9,r3
  801da4:	e13ffc17 	ldw	r4,-16(fp)
  801da8:	20802317 	ldw	r2,140(r4)
  801dac:	20c02417 	ldw	r3,144(r4)
  801db0:	100d883a 	mov	r6,r2
  801db4:	180f883a 	mov	r7,r3
  801db8:	4009883a 	mov	r4,r8
  801dbc:	480b883a 	mov	r5,r9
  801dc0:	08085240 	call	808524 <__subdf3>
  801dc4:	1009883a 	mov	r4,r2
  801dc8:	180b883a 	mov	r5,r3
  801dcc:	2005883a 	mov	r2,r4
  801dd0:	2807883a 	mov	r3,r5
  801dd4:	100d883a 	mov	r6,r2
  801dd8:	180f883a 	mov	r7,r3
  801ddc:	8009883a 	mov	r4,r16
  801de0:	880b883a 	mov	r5,r17
  801de4:	0807d180 	call	807d18 <__ledf2>
  801de8:	1000040e 	bge	r2,zero,801dfc <logic+0x1b6c>
  801dec:	e13ffc17 	ldw	r4,-16(fp)
  801df0:	20802f17 	ldw	r2,188(r4)
  801df4:	20c03017 	ldw	r3,192(r4)
  801df8:	00001206 	br	801e44 <logic+0x1bb4>
  801dfc:	e0bffc17 	ldw	r2,-16(fp)
  801e00:	10800317 	ldw	r2,12(r2)
  801e04:	1009883a 	mov	r4,r2
  801e08:	0808e200 	call	808e20 <__floatsidf>
  801e0c:	1011883a 	mov	r8,r2
  801e10:	1813883a 	mov	r9,r3
  801e14:	e13ffc17 	ldw	r4,-16(fp)
  801e18:	20802317 	ldw	r2,140(r4)
  801e1c:	20c02417 	ldw	r3,144(r4)
  801e20:	100d883a 	mov	r6,r2
  801e24:	180f883a 	mov	r7,r3
  801e28:	4009883a 	mov	r4,r8
  801e2c:	480b883a 	mov	r5,r9
  801e30:	08085240 	call	808524 <__subdf3>
  801e34:	1009883a 	mov	r4,r2
  801e38:	180b883a 	mov	r5,r3
  801e3c:	2005883a 	mov	r2,r4
  801e40:	2807883a 	mov	r3,r5
  801e44:	e13ffc17 	ldw	r4,-16(fp)
  801e48:	20802f15 	stw	r2,188(r4)
  801e4c:	20c03015 	stw	r3,192(r4)
  }
  d->_cg37 = d->_Pacemaker_local__Atrig2 || d->_Pacemaker_local__Atrig3;
  801e50:	e0bffc17 	ldw	r2,-16(fp)
  801e54:	10803483 	ldbu	r2,210(r2)
  801e58:	10803fcc 	andi	r2,r2,255
  801e5c:	1080201c 	xori	r2,r2,128
  801e60:	10bfe004 	addi	r2,r2,-128
  801e64:	1000061e 	bne	r2,zero,801e80 <logic+0x1bf0>
  801e68:	e0bffc17 	ldw	r2,-16(fp)
  801e6c:	108034c3 	ldbu	r2,211(r2)
  801e70:	10803fcc 	andi	r2,r2,255
  801e74:	1080201c 	xori	r2,r2,128
  801e78:	10bfe004 	addi	r2,r2,-128
  801e7c:	10000226 	beq	r2,zero,801e88 <logic+0x1bf8>
  801e80:	00800044 	movi	r2,1
  801e84:	00000106 	br	801e8c <logic+0x1bfc>
  801e88:	0005883a 	mov	r2,zero
  801e8c:	1007883a 	mov	r3,r2
  801e90:	e0bffc17 	ldw	r2,-16(fp)
  801e94:	10c05bc5 	stb	r3,367(r2)
  d->_g34 = d->_g55 && !d->_cg37 || d->_g39 && !d->_cg41;
  801e98:	e0bffc17 	ldw	r2,-16(fp)
  801e9c:	10804083 	ldbu	r2,258(r2)
  801ea0:	10803fcc 	andi	r2,r2,255
  801ea4:	1080201c 	xori	r2,r2,128
  801ea8:	10bfe004 	addi	r2,r2,-128
  801eac:	10000626 	beq	r2,zero,801ec8 <logic+0x1c38>
  801eb0:	e0bffc17 	ldw	r2,-16(fp)
  801eb4:	10805bc3 	ldbu	r2,367(r2)
  801eb8:	10803fcc 	andi	r2,r2,255
  801ebc:	1080201c 	xori	r2,r2,128
  801ec0:	10bfe004 	addi	r2,r2,-128
  801ec4:	10000c26 	beq	r2,zero,801ef8 <logic+0x1c68>
  801ec8:	e0bffc17 	ldw	r2,-16(fp)
  801ecc:	10803d43 	ldbu	r2,245(r2)
  801ed0:	10803fcc 	andi	r2,r2,255
  801ed4:	1080201c 	xori	r2,r2,128
  801ed8:	10bfe004 	addi	r2,r2,-128
  801edc:	10000826 	beq	r2,zero,801f00 <logic+0x1c70>
  801ee0:	e0bffc17 	ldw	r2,-16(fp)
  801ee4:	10805c03 	ldbu	r2,368(r2)
  801ee8:	10803fcc 	andi	r2,r2,255
  801eec:	1080201c 	xori	r2,r2,128
  801ef0:	10bfe004 	addi	r2,r2,-128
  801ef4:	1000021e 	bne	r2,zero,801f00 <logic+0x1c70>
  801ef8:	00800044 	movi	r2,1
  801efc:	00000106 	br	801f04 <logic+0x1c74>
  801f00:	0005883a 	mov	r2,zero
  801f04:	1007883a 	mov	r3,r2
  801f08:	e0bffc17 	ldw	r2,-16(fp)
  801f0c:	10c03c85 	stb	r3,242(r2)
  d->_g58 = d->_g57 && !d->_cg36;
  801f10:	e0bffc17 	ldw	r2,-16(fp)
  801f14:	10804103 	ldbu	r2,260(r2)
  801f18:	10803fcc 	andi	r2,r2,255
  801f1c:	1080201c 	xori	r2,r2,128
  801f20:	10bfe004 	addi	r2,r2,-128
  801f24:	10000826 	beq	r2,zero,801f48 <logic+0x1cb8>
  801f28:	e0bffc17 	ldw	r2,-16(fp)
  801f2c:	10805b83 	ldbu	r2,366(r2)
  801f30:	10803fcc 	andi	r2,r2,255
  801f34:	1080201c 	xori	r2,r2,128
  801f38:	10bfe004 	addi	r2,r2,-128
  801f3c:	1000021e 	bne	r2,zero,801f48 <logic+0x1cb8>
  801f40:	00800044 	movi	r2,1
  801f44:	00000106 	br	801f4c <logic+0x1cbc>
  801f48:	0005883a 	mov	r2,zero
  801f4c:	1007883a 	mov	r3,r2
  801f50:	e0bffc17 	ldw	r2,-16(fp)
  801f54:	10c04145 	stb	r3,261(r2)
  d->_cg46 = d->_Pacemaker_local__Atrig2 || d->_Pacemaker_local__Atrig3;
  801f58:	e0bffc17 	ldw	r2,-16(fp)
  801f5c:	10803483 	ldbu	r2,210(r2)
  801f60:	10803fcc 	andi	r2,r2,255
  801f64:	1080201c 	xori	r2,r2,128
  801f68:	10bfe004 	addi	r2,r2,-128
  801f6c:	1000061e 	bne	r2,zero,801f88 <logic+0x1cf8>
  801f70:	e0bffc17 	ldw	r2,-16(fp)
  801f74:	108034c3 	ldbu	r2,211(r2)
  801f78:	10803fcc 	andi	r2,r2,255
  801f7c:	1080201c 	xori	r2,r2,128
  801f80:	10bfe004 	addi	r2,r2,-128
  801f84:	10000226 	beq	r2,zero,801f90 <logic+0x1d00>
  801f88:	00800044 	movi	r2,1
  801f8c:	00000106 	br	801f94 <logic+0x1d04>
  801f90:	0005883a 	mov	r2,zero
  801f94:	1007883a 	mov	r3,r2
  801f98:	e0bffc17 	ldw	r2,-16(fp)
  801f9c:	10c05cc5 	stb	r3,371(r2)
  d->_g37 = d->_g40 && !d->_cg43 || d->_g58 && !d->_cg46;
  801fa0:	e0bffc17 	ldw	r2,-16(fp)
  801fa4:	10803d83 	ldbu	r2,246(r2)
  801fa8:	10803fcc 	andi	r2,r2,255
  801fac:	1080201c 	xori	r2,r2,128
  801fb0:	10bfe004 	addi	r2,r2,-128
  801fb4:	10000626 	beq	r2,zero,801fd0 <logic+0x1d40>
  801fb8:	e0bffc17 	ldw	r2,-16(fp)
  801fbc:	10805c83 	ldbu	r2,370(r2)
  801fc0:	10803fcc 	andi	r2,r2,255
  801fc4:	1080201c 	xori	r2,r2,128
  801fc8:	10bfe004 	addi	r2,r2,-128
  801fcc:	10000c26 	beq	r2,zero,802000 <logic+0x1d70>
  801fd0:	e0bffc17 	ldw	r2,-16(fp)
  801fd4:	10804143 	ldbu	r2,261(r2)
  801fd8:	10803fcc 	andi	r2,r2,255
  801fdc:	1080201c 	xori	r2,r2,128
  801fe0:	10bfe004 	addi	r2,r2,-128
  801fe4:	10000826 	beq	r2,zero,802008 <logic+0x1d78>
  801fe8:	e0bffc17 	ldw	r2,-16(fp)
  801fec:	10805cc3 	ldbu	r2,371(r2)
  801ff0:	10803fcc 	andi	r2,r2,255
  801ff4:	1080201c 	xori	r2,r2,128
  801ff8:	10bfe004 	addi	r2,r2,-128
  801ffc:	1000021e 	bne	r2,zero,802008 <logic+0x1d78>
  802000:	00800044 	movi	r2,1
  802004:	00000106 	br	80200c <logic+0x1d7c>
  802008:	0005883a 	mov	r2,zero
  80200c:	1007883a 	mov	r3,r2
  802010:	e0bffc17 	ldw	r2,-16(fp)
  802014:	10c03d05 	stb	r3,244(r2)
  d->_g41 = d->_g57 || d->_g52 && !d->_cg52;
  802018:	e0bffc17 	ldw	r2,-16(fp)
  80201c:	10804103 	ldbu	r2,260(r2)
  802020:	10803fcc 	andi	r2,r2,255
  802024:	1080201c 	xori	r2,r2,128
  802028:	10bfe004 	addi	r2,r2,-128
  80202c:	10000c1e 	bne	r2,zero,802060 <logic+0x1dd0>
  802030:	e0bffc17 	ldw	r2,-16(fp)
  802034:	10803fc3 	ldbu	r2,255(r2)
  802038:	10803fcc 	andi	r2,r2,255
  80203c:	1080201c 	xori	r2,r2,128
  802040:	10bfe004 	addi	r2,r2,-128
  802044:	10000826 	beq	r2,zero,802068 <logic+0x1dd8>
  802048:	e0bffc17 	ldw	r2,-16(fp)
  80204c:	10805d03 	ldbu	r2,372(r2)
  802050:	10803fcc 	andi	r2,r2,255
  802054:	1080201c 	xori	r2,r2,128
  802058:	10bfe004 	addi	r2,r2,-128
  80205c:	1000021e 	bne	r2,zero,802068 <logic+0x1dd8>
  802060:	00800044 	movi	r2,1
  802064:	00000106 	br	80206c <logic+0x1ddc>
  802068:	0005883a 	mov	r2,zero
  80206c:	1007883a 	mov	r3,r2
  802070:	e0bffc17 	ldw	r2,-16(fp)
  802074:	10c03dc5 	stb	r3,247(r2)
  d->_g46 = d->_g59 && d->AS;
  802078:	e0bffc17 	ldw	r2,-16(fp)
  80207c:	10804183 	ldbu	r2,262(r2)
  802080:	10803fcc 	andi	r2,r2,255
  802084:	1080201c 	xori	r2,r2,128
  802088:	10bfe004 	addi	r2,r2,-128
  80208c:	10000826 	beq	r2,zero,8020b0 <logic+0x1e20>
  802090:	e0bffc17 	ldw	r2,-16(fp)
  802094:	10803103 	ldbu	r2,196(r2)
  802098:	10803fcc 	andi	r2,r2,255
  80209c:	1080201c 	xori	r2,r2,128
  8020a0:	10bfe004 	addi	r2,r2,-128
  8020a4:	10000226 	beq	r2,zero,8020b0 <logic+0x1e20>
  8020a8:	00800044 	movi	r2,1
  8020ac:	00000106 	br	8020b4 <logic+0x1e24>
  8020b0:	0005883a 	mov	r2,zero
  8020b4:	1007883a 	mov	r3,r2
  8020b8:	e0bffc17 	ldw	r2,-16(fp)
  8020bc:	10c03ec5 	stb	r3,251(r2)
  if (d->_g46) {
  8020c0:	e0bffc17 	ldw	r2,-16(fp)
  8020c4:	10803ec3 	ldbu	r2,251(r2)
  8020c8:	10803fcc 	andi	r2,r2,255
  8020cc:	1080201c 	xori	r2,r2,128
  8020d0:	10bfe004 	addi	r2,r2,-128
  8020d4:	10000526 	beq	r2,zero,8020ec <logic+0x1e5c>
    d->_taken_transitions[6] += 1;
  8020d8:	e0bffc17 	ldw	r2,-16(fp)
  8020dc:	10800d17 	ldw	r2,52(r2)
  8020e0:	10c00044 	addi	r3,r2,1
  8020e4:	e0bffc17 	ldw	r2,-16(fp)
  8020e8:	10c00d15 	stw	r3,52(r2)
  }
  d->_g43 = d->_g63 && d->_cg63;
  8020ec:	e0bffc17 	ldw	r2,-16(fp)
  8020f0:	10804243 	ldbu	r2,265(r2)
  8020f4:	10803fcc 	andi	r2,r2,255
  8020f8:	1080201c 	xori	r2,r2,128
  8020fc:	10bfe004 	addi	r2,r2,-128
  802100:	10000826 	beq	r2,zero,802124 <logic+0x1e94>
  802104:	e0bffc17 	ldw	r2,-16(fp)
  802108:	10805b03 	ldbu	r2,364(r2)
  80210c:	10803fcc 	andi	r2,r2,255
  802110:	1080201c 	xori	r2,r2,128
  802114:	10bfe004 	addi	r2,r2,-128
  802118:	10000226 	beq	r2,zero,802124 <logic+0x1e94>
  80211c:	00800044 	movi	r2,1
  802120:	00000106 	br	802128 <logic+0x1e98>
  802124:	0005883a 	mov	r2,zero
  802128:	1007883a 	mov	r3,r2
  80212c:	e0bffc17 	ldw	r2,-16(fp)
  802130:	10c03e45 	stb	r3,249(r2)
  if (d->_g43) {
  802134:	e0bffc17 	ldw	r2,-16(fp)
  802138:	10803e43 	ldbu	r2,249(r2)
  80213c:	10803fcc 	andi	r2,r2,255
  802140:	1080201c 	xori	r2,r2,128
  802144:	10bfe004 	addi	r2,r2,-128
  802148:	10000526 	beq	r2,zero,802160 <logic+0x1ed0>
    d->_taken_transitions[7] += 1;
  80214c:	e0bffc17 	ldw	r2,-16(fp)
  802150:	10800e17 	ldw	r2,56(r2)
  802154:	10c00044 	addi	r3,r2,1
  802158:	e0bffc17 	ldw	r2,-16(fp)
  80215c:	10c00e15 	stw	r3,56(r2)
  }
  d->_g52 = d->_g46 || d->_g43;
  802160:	e0bffc17 	ldw	r2,-16(fp)
  802164:	10803ec3 	ldbu	r2,251(r2)
  802168:	10803fcc 	andi	r2,r2,255
  80216c:	1080201c 	xori	r2,r2,128
  802170:	10bfe004 	addi	r2,r2,-128
  802174:	1000061e 	bne	r2,zero,802190 <logic+0x1f00>
  802178:	e0bffc17 	ldw	r2,-16(fp)
  80217c:	10803e43 	ldbu	r2,249(r2)
  802180:	10803fcc 	andi	r2,r2,255
  802184:	1080201c 	xori	r2,r2,128
  802188:	10bfe004 	addi	r2,r2,-128
  80218c:	10000226 	beq	r2,zero,802198 <logic+0x1f08>
  802190:	00800044 	movi	r2,1
  802194:	00000106 	br	80219c <logic+0x1f0c>
  802198:	0005883a 	mov	r2,zero
  80219c:	1007883a 	mov	r3,r2
  8021a0:	e0bffc17 	ldw	r2,-16(fp)
  8021a4:	10c03fc5 	stb	r3,255(r2)
  d->_g35 = d->_pg72;
  8021a8:	e0bffc17 	ldw	r2,-16(fp)
  8021ac:	10c06e03 	ldbu	r3,440(r2)
  8021b0:	e0bffc17 	ldw	r2,-16(fp)
  8021b4:	10c03cc5 	stb	r3,243(r2)
  d->_cg81 = d->A_EVT;
  8021b8:	e0bffc17 	ldw	r2,-16(fp)
  8021bc:	10c03203 	ldbu	r3,200(r2)
  8021c0:	e0bffc17 	ldw	r2,-16(fp)
  8021c4:	10c05f85 	stb	r3,382(r2)
  d->_g59 = d->_g35 && d->_cg81;
  8021c8:	e0bffc17 	ldw	r2,-16(fp)
  8021cc:	10803cc3 	ldbu	r2,243(r2)
  8021d0:	10803fcc 	andi	r2,r2,255
  8021d4:	1080201c 	xori	r2,r2,128
  8021d8:	10bfe004 	addi	r2,r2,-128
  8021dc:	10000826 	beq	r2,zero,802200 <logic+0x1f70>
  8021e0:	e0bffc17 	ldw	r2,-16(fp)
  8021e4:	10805f83 	ldbu	r2,382(r2)
  8021e8:	10803fcc 	andi	r2,r2,255
  8021ec:	1080201c 	xori	r2,r2,128
  8021f0:	10bfe004 	addi	r2,r2,-128
  8021f4:	10000226 	beq	r2,zero,802200 <logic+0x1f70>
  8021f8:	00800044 	movi	r2,1
  8021fc:	00000106 	br	802204 <logic+0x1f74>
  802200:	0005883a 	mov	r2,zero
  802204:	1007883a 	mov	r3,r2
  802208:	e0bffc17 	ldw	r2,-16(fp)
  80220c:	10c04185 	stb	r3,262(r2)
  if (d->_g59) {
  802210:	e0bffc17 	ldw	r2,-16(fp)
  802214:	10804183 	ldbu	r2,262(r2)
  802218:	10803fcc 	andi	r2,r2,255
  80221c:	1080201c 	xori	r2,r2,128
  802220:	10bfe004 	addi	r2,r2,-128
  802224:	10000326 	beq	r2,zero,802234 <logic+0x1fa4>
    d->_Pacemaker_local__Atrig4 = 1;
  802228:	e0bffc17 	ldw	r2,-16(fp)
  80222c:	00c00044 	movi	r3,1
  802230:	10c03505 	stb	r3,212(r2)
  }
  d->_g63 = d->_pg158;
  802234:	e0bffc17 	ldw	r2,-16(fp)
  802238:	10c06e43 	ldbu	r3,441(r2)
  80223c:	e0bffc17 	ldw	r2,-16(fp)
  802240:	10c04245 	stb	r3,265(r2)
  if (d->_g63) {
  802244:	e0bffc17 	ldw	r2,-16(fp)
  802248:	10804243 	ldbu	r2,265(r2)
  80224c:	10803fcc 	andi	r2,r2,255
  802250:	1080201c 	xori	r2,r2,128
  802254:	10bfe004 	addi	r2,r2,-128
  802258:	10001226 	beq	r2,zero,8022a4 <logic+0x2014>
    d->_region2_AEI_t += d->deltaT;
  80225c:	e13ffc17 	ldw	r4,-16(fp)
  802260:	20802517 	ldw	r2,148(r4)
  802264:	20c02617 	ldw	r3,152(r4)
  802268:	e1bffc17 	ldw	r6,-16(fp)
  80226c:	31002d17 	ldw	r4,180(r6)
  802270:	31402e17 	ldw	r5,184(r6)
  802274:	200d883a 	mov	r6,r4
  802278:	280f883a 	mov	r7,r5
  80227c:	1009883a 	mov	r4,r2
  802280:	180b883a 	mov	r5,r3
  802284:	0806aa80 	call	806aa8 <__adddf3>
  802288:	1009883a 	mov	r4,r2
  80228c:	180b883a 	mov	r5,r3
  802290:	2005883a 	mov	r2,r4
  802294:	2807883a 	mov	r3,r5
  802298:	e13ffc17 	ldw	r4,-16(fp)
  80229c:	20802515 	stw	r2,148(r4)
  8022a0:	20c02615 	stw	r3,152(r4)
  }
  d->_g64 = d->_g35 && !d->_cg81;
  8022a4:	e0bffc17 	ldw	r2,-16(fp)
  8022a8:	10803cc3 	ldbu	r2,243(r2)
  8022ac:	10803fcc 	andi	r2,r2,255
  8022b0:	1080201c 	xori	r2,r2,128
  8022b4:	10bfe004 	addi	r2,r2,-128
  8022b8:	10000826 	beq	r2,zero,8022dc <logic+0x204c>
  8022bc:	e0bffc17 	ldw	r2,-16(fp)
  8022c0:	10805f83 	ldbu	r2,382(r2)
  8022c4:	10803fcc 	andi	r2,r2,255
  8022c8:	1080201c 	xori	r2,r2,128
  8022cc:	10bfe004 	addi	r2,r2,-128
  8022d0:	1000021e 	bne	r2,zero,8022dc <logic+0x204c>
  8022d4:	00800044 	movi	r2,1
  8022d8:	00000106 	br	8022e0 <logic+0x2050>
  8022dc:	0005883a 	mov	r2,zero
  8022e0:	1007883a 	mov	r3,r2
  8022e4:	e0bffc17 	ldw	r2,-16(fp)
  8022e8:	10c04285 	stb	r3,266(r2)
  d->_cg84 = d->_region2_AEI_t >= d->T_AEI;
  8022ec:	e0bffc17 	ldw	r2,-16(fp)
  8022f0:	14002517 	ldw	r16,148(r2)
  8022f4:	14402617 	ldw	r17,152(r2)
  8022f8:	e0bffc17 	ldw	r2,-16(fp)
  8022fc:	10800217 	ldw	r2,8(r2)
  802300:	1009883a 	mov	r4,r2
  802304:	0808e200 	call	808e20 <__floatsidf>
  802308:	1009883a 	mov	r4,r2
  80230c:	180b883a 	mov	r5,r3
  802310:	04800044 	movi	r18,1
  802314:	200d883a 	mov	r6,r4
  802318:	280f883a 	mov	r7,r5
  80231c:	8009883a 	mov	r4,r16
  802320:	880b883a 	mov	r5,r17
  802324:	0807c3c0 	call	807c3c <__gedf2>
  802328:	1000010e 	bge	r2,zero,802330 <logic+0x20a0>
  80232c:	0025883a 	mov	r18,zero
  802330:	9007883a 	mov	r3,r18
  802334:	e0bffc17 	ldw	r2,-16(fp)
  802338:	10c05f45 	stb	r3,381(r2)
  d->_g60 = d->_g64 && d->_cg84;
  80233c:	e0bffc17 	ldw	r2,-16(fp)
  802340:	10804283 	ldbu	r2,266(r2)
  802344:	10803fcc 	andi	r2,r2,255
  802348:	1080201c 	xori	r2,r2,128
  80234c:	10bfe004 	addi	r2,r2,-128
  802350:	10000826 	beq	r2,zero,802374 <logic+0x20e4>
  802354:	e0bffc17 	ldw	r2,-16(fp)
  802358:	10805f43 	ldbu	r2,381(r2)
  80235c:	10803fcc 	andi	r2,r2,255
  802360:	1080201c 	xori	r2,r2,128
  802364:	10bfe004 	addi	r2,r2,-128
  802368:	10000226 	beq	r2,zero,802374 <logic+0x20e4>
  80236c:	00800044 	movi	r2,1
  802370:	00000106 	br	802378 <logic+0x20e8>
  802374:	0005883a 	mov	r2,zero
  802378:	1007883a 	mov	r3,r2
  80237c:	e0bffc17 	ldw	r2,-16(fp)
  802380:	10c041c5 	stb	r3,263(r2)
  if (d->_g60) {
  802384:	e0bffc17 	ldw	r2,-16(fp)
  802388:	108041c3 	ldbu	r2,263(r2)
  80238c:	10803fcc 	andi	r2,r2,255
  802390:	1080201c 	xori	r2,r2,128
  802394:	10bfe004 	addi	r2,r2,-128
  802398:	10000326 	beq	r2,zero,8023a8 <logic+0x2118>
    d->_Pacemaker_local__Atrig5 = 1;
  80239c:	e0bffc17 	ldw	r2,-16(fp)
  8023a0:	00c00044 	movi	r3,1
  8023a4:	10c03545 	stb	r3,213(r2)
  }
  d->_g81 = d->_pg83_e2;
  8023a8:	e0bffc17 	ldw	r2,-16(fp)
  8023ac:	10c06e83 	ldbu	r3,442(r2)
  8023b0:	e0bffc17 	ldw	r2,-16(fp)
  8023b4:	10c04545 	stb	r3,277(r2)
  d->_cg68 = d->V_EVT;
  8023b8:	e0bffc17 	ldw	r2,-16(fp)
  8023bc:	10c03243 	ldbu	r3,201(r2)
  8023c0:	e0bffc17 	ldw	r2,-16(fp)
  8023c4:	10c05e45 	stb	r3,377(r2)
  d->_g69 = d->_g81 && d->_cg68;
  8023c8:	e0bffc17 	ldw	r2,-16(fp)
  8023cc:	10804543 	ldbu	r2,277(r2)
  8023d0:	10803fcc 	andi	r2,r2,255
  8023d4:	1080201c 	xori	r2,r2,128
  8023d8:	10bfe004 	addi	r2,r2,-128
  8023dc:	10000826 	beq	r2,zero,802400 <logic+0x2170>
  8023e0:	e0bffc17 	ldw	r2,-16(fp)
  8023e4:	10805e43 	ldbu	r2,377(r2)
  8023e8:	10803fcc 	andi	r2,r2,255
  8023ec:	1080201c 	xori	r2,r2,128
  8023f0:	10bfe004 	addi	r2,r2,-128
  8023f4:	10000226 	beq	r2,zero,802400 <logic+0x2170>
  8023f8:	00800044 	movi	r2,1
  8023fc:	00000106 	br	802404 <logic+0x2174>
  802400:	0005883a 	mov	r2,zero
  802404:	1007883a 	mov	r3,r2
  802408:	e0bffc17 	ldw	r2,-16(fp)
  80240c:	10c04305 	stb	r3,268(r2)
  if (d->_g69) {
  802410:	e0bffc17 	ldw	r2,-16(fp)
  802414:	10804303 	ldbu	r2,268(r2)
  802418:	10803fcc 	andi	r2,r2,255
  80241c:	1080201c 	xori	r2,r2,128
  802420:	10bfe004 	addi	r2,r2,-128
  802424:	10000c26 	beq	r2,zero,802458 <logic+0x21c8>
    d->_region2_AEI_t = 0;
  802428:	e0bffc17 	ldw	r2,-16(fp)
  80242c:	10002515 	stw	zero,148(r2)
  802430:	10002615 	stw	zero,152(r2)
    d->_taken_transitions[11] += 1;
  802434:	e0bffc17 	ldw	r2,-16(fp)
  802438:	10801217 	ldw	r2,72(r2)
  80243c:	10c00044 	addi	r3,r2,1
  802440:	e0bffc17 	ldw	r2,-16(fp)
  802444:	10c01215 	stw	r3,72(r2)
    d->_Pacemaker_local__Atrig4 = 0;
  802448:	e0bffc17 	ldw	r2,-16(fp)
  80244c:	10003505 	stb	zero,212(r2)
    d->_Pacemaker_local__Atrig5 = 0;
  802450:	e0bffc17 	ldw	r2,-16(fp)
  802454:	10003545 	stb	zero,213(r2)
  }
  d->_g75 = d->_pg74;
  802458:	e0bffc17 	ldw	r2,-16(fp)
  80245c:	10c06ec3 	ldbu	r3,443(r2)
  802460:	e0bffc17 	ldw	r2,-16(fp)
  802464:	10c04445 	stb	r3,273(r2)
  d->_g78 = d->_pg77;
  802468:	e0bffc17 	ldw	r2,-16(fp)
  80246c:	10c06f03 	ldbu	r3,444(r2)
  802470:	e0bffc17 	ldw	r2,-16(fp)
  802474:	10c04505 	stb	r3,276(r2)
  d->_g78 = d->_g69 || d->_g75 || d->_g78;
  802478:	e0bffc17 	ldw	r2,-16(fp)
  80247c:	10804303 	ldbu	r2,268(r2)
  802480:	10803fcc 	andi	r2,r2,255
  802484:	1080201c 	xori	r2,r2,128
  802488:	10bfe004 	addi	r2,r2,-128
  80248c:	10000c1e 	bne	r2,zero,8024c0 <logic+0x2230>
  802490:	e0bffc17 	ldw	r2,-16(fp)
  802494:	10804443 	ldbu	r2,273(r2)
  802498:	10803fcc 	andi	r2,r2,255
  80249c:	1080201c 	xori	r2,r2,128
  8024a0:	10bfe004 	addi	r2,r2,-128
  8024a4:	1000061e 	bne	r2,zero,8024c0 <logic+0x2230>
  8024a8:	e0bffc17 	ldw	r2,-16(fp)
  8024ac:	10804503 	ldbu	r2,276(r2)
  8024b0:	10803fcc 	andi	r2,r2,255
  8024b4:	1080201c 	xori	r2,r2,128
  8024b8:	10bfe004 	addi	r2,r2,-128
  8024bc:	10000226 	beq	r2,zero,8024c8 <logic+0x2238>
  8024c0:	00800044 	movi	r2,1
  8024c4:	00000106 	br	8024cc <logic+0x223c>
  8024c8:	0005883a 	mov	r2,zero
  8024cc:	1007883a 	mov	r3,r2
  8024d0:	e0bffc17 	ldw	r2,-16(fp)
  8024d4:	10c04505 	stb	r3,276(r2)
  d->_cg71 = d->_region2_AEI_t < d->T_AEI;
  8024d8:	e0bffc17 	ldw	r2,-16(fp)
  8024dc:	14002517 	ldw	r16,148(r2)
  8024e0:	14402617 	ldw	r17,152(r2)
  8024e4:	e0bffc17 	ldw	r2,-16(fp)
  8024e8:	10800217 	ldw	r2,8(r2)
  8024ec:	1009883a 	mov	r4,r2
  8024f0:	0808e200 	call	808e20 <__floatsidf>
  8024f4:	1009883a 	mov	r4,r2
  8024f8:	180b883a 	mov	r5,r3
  8024fc:	04800044 	movi	r18,1
  802500:	200d883a 	mov	r6,r4
  802504:	280f883a 	mov	r7,r5
  802508:	8009883a 	mov	r4,r16
  80250c:	880b883a 	mov	r5,r17
  802510:	0807d180 	call	807d18 <__ledf2>
  802514:	10000116 	blt	r2,zero,80251c <logic+0x228c>
  802518:	0025883a 	mov	r18,zero
  80251c:	9007883a 	mov	r3,r18
  802520:	e0bffc17 	ldw	r2,-16(fp)
  802524:	10c05e85 	stb	r3,378(r2)
  d->_g75 = d->_g78 && !d->_cg71;
  802528:	e0bffc17 	ldw	r2,-16(fp)
  80252c:	10804503 	ldbu	r2,276(r2)
  802530:	10803fcc 	andi	r2,r2,255
  802534:	1080201c 	xori	r2,r2,128
  802538:	10bfe004 	addi	r2,r2,-128
  80253c:	10000826 	beq	r2,zero,802560 <logic+0x22d0>
  802540:	e0bffc17 	ldw	r2,-16(fp)
  802544:	10805e83 	ldbu	r2,378(r2)
  802548:	10803fcc 	andi	r2,r2,255
  80254c:	1080201c 	xori	r2,r2,128
  802550:	10bfe004 	addi	r2,r2,-128
  802554:	1000021e 	bne	r2,zero,802560 <logic+0x22d0>
  802558:	00800044 	movi	r2,1
  80255c:	00000106 	br	802564 <logic+0x22d4>
  802560:	0005883a 	mov	r2,zero
  802564:	1007883a 	mov	r3,r2
  802568:	e0bffc17 	ldw	r2,-16(fp)
  80256c:	10c04445 	stb	r3,273(r2)
  d->_cg76 = d->_Pacemaker_local__Atrig4 || d->_Pacemaker_local__Atrig5;
  802570:	e0bffc17 	ldw	r2,-16(fp)
  802574:	10803503 	ldbu	r2,212(r2)
  802578:	10803fcc 	andi	r2,r2,255
  80257c:	1080201c 	xori	r2,r2,128
  802580:	10bfe004 	addi	r2,r2,-128
  802584:	1000061e 	bne	r2,zero,8025a0 <logic+0x2310>
  802588:	e0bffc17 	ldw	r2,-16(fp)
  80258c:	10803543 	ldbu	r2,213(r2)
  802590:	10803fcc 	andi	r2,r2,255
  802594:	1080201c 	xori	r2,r2,128
  802598:	10bfe004 	addi	r2,r2,-128
  80259c:	10000226 	beq	r2,zero,8025a8 <logic+0x2318>
  8025a0:	00800044 	movi	r2,1
  8025a4:	00000106 	br	8025ac <logic+0x231c>
  8025a8:	0005883a 	mov	r2,zero
  8025ac:	1007883a 	mov	r3,r2
  8025b0:	e0bffc17 	ldw	r2,-16(fp)
  8025b4:	10c05f05 	stb	r3,380(r2)
  d->_g77 = d->_g75 && !d->_cg76;
  8025b8:	e0bffc17 	ldw	r2,-16(fp)
  8025bc:	10804443 	ldbu	r2,273(r2)
  8025c0:	10803fcc 	andi	r2,r2,255
  8025c4:	1080201c 	xori	r2,r2,128
  8025c8:	10bfe004 	addi	r2,r2,-128
  8025cc:	10000826 	beq	r2,zero,8025f0 <logic+0x2360>
  8025d0:	e0bffc17 	ldw	r2,-16(fp)
  8025d4:	10805f03 	ldbu	r2,380(r2)
  8025d8:	10803fcc 	andi	r2,r2,255
  8025dc:	1080201c 	xori	r2,r2,128
  8025e0:	10bfe004 	addi	r2,r2,-128
  8025e4:	1000021e 	bne	r2,zero,8025f0 <logic+0x2360>
  8025e8:	00800044 	movi	r2,1
  8025ec:	00000106 	br	8025f4 <logic+0x2364>
  8025f0:	0005883a 	mov	r2,zero
  8025f4:	1007883a 	mov	r3,r2
  8025f8:	e0bffc17 	ldw	r2,-16(fp)
  8025fc:	10c044c5 	stb	r3,275(r2)
  d->_g71 = d->_g78 && d->_cg71;
  802600:	e0bffc17 	ldw	r2,-16(fp)
  802604:	10804503 	ldbu	r2,276(r2)
  802608:	10803fcc 	andi	r2,r2,255
  80260c:	1080201c 	xori	r2,r2,128
  802610:	10bfe004 	addi	r2,r2,-128
  802614:	10000826 	beq	r2,zero,802638 <logic+0x23a8>
  802618:	e0bffc17 	ldw	r2,-16(fp)
  80261c:	10805e83 	ldbu	r2,378(r2)
  802620:	10803fcc 	andi	r2,r2,255
  802624:	1080201c 	xori	r2,r2,128
  802628:	10bfe004 	addi	r2,r2,-128
  80262c:	10000226 	beq	r2,zero,802638 <logic+0x23a8>
  802630:	00800044 	movi	r2,1
  802634:	00000106 	br	80263c <logic+0x23ac>
  802638:	0005883a 	mov	r2,zero
  80263c:	1007883a 	mov	r3,r2
  802640:	e0bffc17 	ldw	r2,-16(fp)
  802644:	10c04345 	stb	r3,269(r2)
  if (d->_g71) {
  802648:	e0bffc17 	ldw	r2,-16(fp)
  80264c:	10804343 	ldbu	r2,269(r2)
  802650:	10803fcc 	andi	r2,r2,255
  802654:	1080201c 	xori	r2,r2,128
  802658:	10bfe004 	addi	r2,r2,-128
  80265c:	10003426 	beq	r2,zero,802730 <logic+0x24a0>
    d->sleepT = (d->sleepT < (d->T_AEI - d->_region2_AEI_t)) ? d->sleepT : (d->T_AEI - d->_region2_AEI_t);
  802660:	e0bffc17 	ldw	r2,-16(fp)
  802664:	14002f17 	ldw	r16,188(r2)
  802668:	14403017 	ldw	r17,192(r2)
  80266c:	e0bffc17 	ldw	r2,-16(fp)
  802670:	10800217 	ldw	r2,8(r2)
  802674:	1009883a 	mov	r4,r2
  802678:	0808e200 	call	808e20 <__floatsidf>
  80267c:	1011883a 	mov	r8,r2
  802680:	1813883a 	mov	r9,r3
  802684:	e13ffc17 	ldw	r4,-16(fp)
  802688:	20802517 	ldw	r2,148(r4)
  80268c:	20c02617 	ldw	r3,152(r4)
  802690:	100d883a 	mov	r6,r2
  802694:	180f883a 	mov	r7,r3
  802698:	4009883a 	mov	r4,r8
  80269c:	480b883a 	mov	r5,r9
  8026a0:	08085240 	call	808524 <__subdf3>
  8026a4:	1009883a 	mov	r4,r2
  8026a8:	180b883a 	mov	r5,r3
  8026ac:	2005883a 	mov	r2,r4
  8026b0:	2807883a 	mov	r3,r5
  8026b4:	100d883a 	mov	r6,r2
  8026b8:	180f883a 	mov	r7,r3
  8026bc:	8009883a 	mov	r4,r16
  8026c0:	880b883a 	mov	r5,r17
  8026c4:	0807d180 	call	807d18 <__ledf2>
  8026c8:	1000040e 	bge	r2,zero,8026dc <logic+0x244c>
  8026cc:	e13ffc17 	ldw	r4,-16(fp)
  8026d0:	20802f17 	ldw	r2,188(r4)
  8026d4:	20c03017 	ldw	r3,192(r4)
  8026d8:	00001206 	br	802724 <logic+0x2494>
  8026dc:	e0bffc17 	ldw	r2,-16(fp)
  8026e0:	10800217 	ldw	r2,8(r2)
  8026e4:	1009883a 	mov	r4,r2
  8026e8:	0808e200 	call	808e20 <__floatsidf>
  8026ec:	1011883a 	mov	r8,r2
  8026f0:	1813883a 	mov	r9,r3
  8026f4:	e13ffc17 	ldw	r4,-16(fp)
  8026f8:	20802517 	ldw	r2,148(r4)
  8026fc:	20c02617 	ldw	r3,152(r4)
  802700:	100d883a 	mov	r6,r2
  802704:	180f883a 	mov	r7,r3
  802708:	4009883a 	mov	r4,r8
  80270c:	480b883a 	mov	r5,r9
  802710:	08085240 	call	808524 <__subdf3>
  802714:	1009883a 	mov	r4,r2
  802718:	180b883a 	mov	r5,r3
  80271c:	2005883a 	mov	r2,r4
  802720:	2807883a 	mov	r3,r5
  802724:	e13ffc17 	ldw	r4,-16(fp)
  802728:	20802f15 	stw	r2,188(r4)
  80272c:	20c03015 	stw	r3,192(r4)
  }
  d->_cg72 = d->_Pacemaker_local__Atrig4 || d->_Pacemaker_local__Atrig5;
  802730:	e0bffc17 	ldw	r2,-16(fp)
  802734:	10803503 	ldbu	r2,212(r2)
  802738:	10803fcc 	andi	r2,r2,255
  80273c:	1080201c 	xori	r2,r2,128
  802740:	10bfe004 	addi	r2,r2,-128
  802744:	1000061e 	bne	r2,zero,802760 <logic+0x24d0>
  802748:	e0bffc17 	ldw	r2,-16(fp)
  80274c:	10803543 	ldbu	r2,213(r2)
  802750:	10803fcc 	andi	r2,r2,255
  802754:	1080201c 	xori	r2,r2,128
  802758:	10bfe004 	addi	r2,r2,-128
  80275c:	10000226 	beq	r2,zero,802768 <logic+0x24d8>
  802760:	00800044 	movi	r2,1
  802764:	00000106 	br	80276c <logic+0x24dc>
  802768:	0005883a 	mov	r2,zero
  80276c:	1007883a 	mov	r3,r2
  802770:	e0bffc17 	ldw	r2,-16(fp)
  802774:	10c05ec5 	stb	r3,379(r2)
  d->_g74 = d->_g71 && !d->_cg72;
  802778:	e0bffc17 	ldw	r2,-16(fp)
  80277c:	10804343 	ldbu	r2,269(r2)
  802780:	10803fcc 	andi	r2,r2,255
  802784:	1080201c 	xori	r2,r2,128
  802788:	10bfe004 	addi	r2,r2,-128
  80278c:	10000826 	beq	r2,zero,8027b0 <logic+0x2520>
  802790:	e0bffc17 	ldw	r2,-16(fp)
  802794:	10805ec3 	ldbu	r2,379(r2)
  802798:	10803fcc 	andi	r2,r2,255
  80279c:	1080201c 	xori	r2,r2,128
  8027a0:	10bfe004 	addi	r2,r2,-128
  8027a4:	1000021e 	bne	r2,zero,8027b0 <logic+0x2520>
  8027a8:	00800044 	movi	r2,1
  8027ac:	00000106 	br	8027b4 <logic+0x2524>
  8027b0:	0005883a 	mov	r2,zero
  8027b4:	1007883a 	mov	r3,r2
  8027b8:	e0bffc17 	ldw	r2,-16(fp)
  8027bc:	10c04405 	stb	r3,272(r2)
  d->_g73_e1 = !(d->_g77 || d->_g74);
  8027c0:	e0bffc17 	ldw	r2,-16(fp)
  8027c4:	108044c3 	ldbu	r2,275(r2)
  8027c8:	10803fcc 	andi	r2,r2,255
  8027cc:	1080201c 	xori	r2,r2,128
  8027d0:	10bfe004 	addi	r2,r2,-128
  8027d4:	1000081e 	bne	r2,zero,8027f8 <logic+0x2568>
  8027d8:	e0bffc17 	ldw	r2,-16(fp)
  8027dc:	10804403 	ldbu	r2,272(r2)
  8027e0:	10803fcc 	andi	r2,r2,255
  8027e4:	1080201c 	xori	r2,r2,128
  8027e8:	10bfe004 	addi	r2,r2,-128
  8027ec:	1000021e 	bne	r2,zero,8027f8 <logic+0x2568>
  8027f0:	00800044 	movi	r2,1
  8027f4:	00000106 	br	8027fc <logic+0x256c>
  8027f8:	0005883a 	mov	r2,zero
  8027fc:	1007883a 	mov	r3,r2
  802800:	e0bffc17 	ldw	r2,-16(fp)
  802804:	10c06885 	stb	r3,418(r2)
  d->_g76 = d->_g71 && d->_cg72 || d->_g75 && d->_cg76;
  802808:	e0bffc17 	ldw	r2,-16(fp)
  80280c:	10804343 	ldbu	r2,269(r2)
  802810:	10803fcc 	andi	r2,r2,255
  802814:	1080201c 	xori	r2,r2,128
  802818:	10bfe004 	addi	r2,r2,-128
  80281c:	10000626 	beq	r2,zero,802838 <logic+0x25a8>
  802820:	e0bffc17 	ldw	r2,-16(fp)
  802824:	10805ec3 	ldbu	r2,379(r2)
  802828:	10803fcc 	andi	r2,r2,255
  80282c:	1080201c 	xori	r2,r2,128
  802830:	10bfe004 	addi	r2,r2,-128
  802834:	10000c1e 	bne	r2,zero,802868 <logic+0x25d8>
  802838:	e0bffc17 	ldw	r2,-16(fp)
  80283c:	10804443 	ldbu	r2,273(r2)
  802840:	10803fcc 	andi	r2,r2,255
  802844:	1080201c 	xori	r2,r2,128
  802848:	10bfe004 	addi	r2,r2,-128
  80284c:	10000826 	beq	r2,zero,802870 <logic+0x25e0>
  802850:	e0bffc17 	ldw	r2,-16(fp)
  802854:	10805f03 	ldbu	r2,380(r2)
  802858:	10803fcc 	andi	r2,r2,255
  80285c:	1080201c 	xori	r2,r2,128
  802860:	10bfe004 	addi	r2,r2,-128
  802864:	10000226 	beq	r2,zero,802870 <logic+0x25e0>
  802868:	00800044 	movi	r2,1
  80286c:	00000106 	br	802874 <logic+0x25e4>
  802870:	0005883a 	mov	r2,zero
  802874:	1007883a 	mov	r3,r2
  802878:	e0bffc17 	ldw	r2,-16(fp)
  80287c:	10c04485 	stb	r3,274(r2)
  d->_g72 = d->_g69 || d->_g64 && !d->_cg84;
  802880:	e0bffc17 	ldw	r2,-16(fp)
  802884:	10804303 	ldbu	r2,268(r2)
  802888:	10803fcc 	andi	r2,r2,255
  80288c:	1080201c 	xori	r2,r2,128
  802890:	10bfe004 	addi	r2,r2,-128
  802894:	10000c1e 	bne	r2,zero,8028c8 <logic+0x2638>
  802898:	e0bffc17 	ldw	r2,-16(fp)
  80289c:	10804283 	ldbu	r2,266(r2)
  8028a0:	10803fcc 	andi	r2,r2,255
  8028a4:	1080201c 	xori	r2,r2,128
  8028a8:	10bfe004 	addi	r2,r2,-128
  8028ac:	10000826 	beq	r2,zero,8028d0 <logic+0x2640>
  8028b0:	e0bffc17 	ldw	r2,-16(fp)
  8028b4:	10805f43 	ldbu	r2,381(r2)
  8028b8:	10803fcc 	andi	r2,r2,255
  8028bc:	1080201c 	xori	r2,r2,128
  8028c0:	10bfe004 	addi	r2,r2,-128
  8028c4:	1000021e 	bne	r2,zero,8028d0 <logic+0x2640>
  8028c8:	00800044 	movi	r2,1
  8028cc:	00000106 	br	8028d4 <logic+0x2644>
  8028d0:	0005883a 	mov	r2,zero
  8028d4:	1007883a 	mov	r3,r2
  8028d8:	e0bffc17 	ldw	r2,-16(fp)
  8028dc:	10c04385 	stb	r3,270(r2)
  d->_g84 = !d->_g72;
  8028e0:	e0bffc17 	ldw	r2,-16(fp)
  8028e4:	10804383 	ldbu	r2,270(r2)
  8028e8:	10803fcc 	andi	r2,r2,255
  8028ec:	1080201c 	xori	r2,r2,128
  8028f0:	10bfe004 	addi	r2,r2,-128
  8028f4:	1005003a 	cmpeq	r2,r2,zero
  8028f8:	1007883a 	mov	r3,r2
  8028fc:	e0bffc17 	ldw	r2,-16(fp)
  802900:	10c04605 	stb	r3,280(r2)
  d->_g69 = d->_g59 || d->_g60;
  802904:	e0bffc17 	ldw	r2,-16(fp)
  802908:	10804183 	ldbu	r2,262(r2)
  80290c:	10803fcc 	andi	r2,r2,255
  802910:	1080201c 	xori	r2,r2,128
  802914:	10bfe004 	addi	r2,r2,-128
  802918:	1000061e 	bne	r2,zero,802934 <logic+0x26a4>
  80291c:	e0bffc17 	ldw	r2,-16(fp)
  802920:	108041c3 	ldbu	r2,263(r2)
  802924:	10803fcc 	andi	r2,r2,255
  802928:	1080201c 	xori	r2,r2,128
  80292c:	10bfe004 	addi	r2,r2,-128
  802930:	10000226 	beq	r2,zero,80293c <logic+0x26ac>
  802934:	00800044 	movi	r2,1
  802938:	00000106 	br	802940 <logic+0x26b0>
  80293c:	0005883a 	mov	r2,zero
  802940:	1007883a 	mov	r3,r2
  802944:	e0bffc17 	ldw	r2,-16(fp)
  802948:	10c04305 	stb	r3,268(r2)
  d->_g85 = (d->_g73_e1 || d->_g76) && (d->_g84 || d->_g69) && (d->_g76 || d->_g69);
  80294c:	e0bffc17 	ldw	r2,-16(fp)
  802950:	10806883 	ldbu	r2,418(r2)
  802954:	10803fcc 	andi	r2,r2,255
  802958:	1080201c 	xori	r2,r2,128
  80295c:	10bfe004 	addi	r2,r2,-128
  802960:	1000061e 	bne	r2,zero,80297c <logic+0x26ec>
  802964:	e0bffc17 	ldw	r2,-16(fp)
  802968:	10804483 	ldbu	r2,274(r2)
  80296c:	10803fcc 	andi	r2,r2,255
  802970:	1080201c 	xori	r2,r2,128
  802974:	10bfe004 	addi	r2,r2,-128
  802978:	10001a26 	beq	r2,zero,8029e4 <logic+0x2754>
  80297c:	e0bffc17 	ldw	r2,-16(fp)
  802980:	10804603 	ldbu	r2,280(r2)
  802984:	10803fcc 	andi	r2,r2,255
  802988:	1080201c 	xori	r2,r2,128
  80298c:	10bfe004 	addi	r2,r2,-128
  802990:	1000061e 	bne	r2,zero,8029ac <logic+0x271c>
  802994:	e0bffc17 	ldw	r2,-16(fp)
  802998:	10804303 	ldbu	r2,268(r2)
  80299c:	10803fcc 	andi	r2,r2,255
  8029a0:	1080201c 	xori	r2,r2,128
  8029a4:	10bfe004 	addi	r2,r2,-128
  8029a8:	10000e26 	beq	r2,zero,8029e4 <logic+0x2754>
  8029ac:	e0bffc17 	ldw	r2,-16(fp)
  8029b0:	10804483 	ldbu	r2,274(r2)
  8029b4:	10803fcc 	andi	r2,r2,255
  8029b8:	1080201c 	xori	r2,r2,128
  8029bc:	10bfe004 	addi	r2,r2,-128
  8029c0:	1000061e 	bne	r2,zero,8029dc <logic+0x274c>
  8029c4:	e0bffc17 	ldw	r2,-16(fp)
  8029c8:	10804303 	ldbu	r2,268(r2)
  8029cc:	10803fcc 	andi	r2,r2,255
  8029d0:	1080201c 	xori	r2,r2,128
  8029d4:	10bfe004 	addi	r2,r2,-128
  8029d8:	10000226 	beq	r2,zero,8029e4 <logic+0x2754>
  8029dc:	00800044 	movi	r2,1
  8029e0:	00000106 	br	8029e8 <logic+0x2758>
  8029e4:	0005883a 	mov	r2,zero
  8029e8:	1007883a 	mov	r3,r2
  8029ec:	e0bffc17 	ldw	r2,-16(fp)
  8029f0:	10c04645 	stb	r3,281(r2)
  d->_cg86 = d->_Pacemaker_local__Atrig4;
  8029f4:	e0bffc17 	ldw	r2,-16(fp)
  8029f8:	10c03503 	ldbu	r3,212(r2)
  8029fc:	e0bffc17 	ldw	r2,-16(fp)
  802a00:	10c05fc5 	stb	r3,383(r2)
  d->_g82 = d->_g85 && d->_cg86;
  802a04:	e0bffc17 	ldw	r2,-16(fp)
  802a08:	10804643 	ldbu	r2,281(r2)
  802a0c:	10803fcc 	andi	r2,r2,255
  802a10:	1080201c 	xori	r2,r2,128
  802a14:	10bfe004 	addi	r2,r2,-128
  802a18:	10000826 	beq	r2,zero,802a3c <logic+0x27ac>
  802a1c:	e0bffc17 	ldw	r2,-16(fp)
  802a20:	10805fc3 	ldbu	r2,383(r2)
  802a24:	10803fcc 	andi	r2,r2,255
  802a28:	1080201c 	xori	r2,r2,128
  802a2c:	10bfe004 	addi	r2,r2,-128
  802a30:	10000226 	beq	r2,zero,802a3c <logic+0x27ac>
  802a34:	00800044 	movi	r2,1
  802a38:	00000106 	br	802a40 <logic+0x27b0>
  802a3c:	0005883a 	mov	r2,zero
  802a40:	1007883a 	mov	r3,r2
  802a44:	e0bffc17 	ldw	r2,-16(fp)
  802a48:	10c04585 	stb	r3,278(r2)
  if (d->_g82) {
  802a4c:	e0bffc17 	ldw	r2,-16(fp)
  802a50:	10804583 	ldbu	r2,278(r2)
  802a54:	10803fcc 	andi	r2,r2,255
  802a58:	1080201c 	xori	r2,r2,128
  802a5c:	10bfe004 	addi	r2,r2,-128
  802a60:	10000526 	beq	r2,zero,802a78 <logic+0x27e8>
    d->_taken_transitions[12] += 1;
  802a64:	e0bffc17 	ldw	r2,-16(fp)
  802a68:	10801317 	ldw	r2,76(r2)
  802a6c:	10c00044 	addi	r3,r2,1
  802a70:	e0bffc17 	ldw	r2,-16(fp)
  802a74:	10c01315 	stw	r3,76(r2)
  }
  d->_g73 = d->_g85 && !d->_cg86;
  802a78:	e0bffc17 	ldw	r2,-16(fp)
  802a7c:	10804643 	ldbu	r2,281(r2)
  802a80:	10803fcc 	andi	r2,r2,255
  802a84:	1080201c 	xori	r2,r2,128
  802a88:	10bfe004 	addi	r2,r2,-128
  802a8c:	10000826 	beq	r2,zero,802ab0 <logic+0x2820>
  802a90:	e0bffc17 	ldw	r2,-16(fp)
  802a94:	10805fc3 	ldbu	r2,383(r2)
  802a98:	10803fcc 	andi	r2,r2,255
  802a9c:	1080201c 	xori	r2,r2,128
  802aa0:	10bfe004 	addi	r2,r2,-128
  802aa4:	1000021e 	bne	r2,zero,802ab0 <logic+0x2820>
  802aa8:	00800044 	movi	r2,1
  802aac:	00000106 	br	802ab4 <logic+0x2824>
  802ab0:	0005883a 	mov	r2,zero
  802ab4:	1007883a 	mov	r3,r2
  802ab8:	e0bffc17 	ldw	r2,-16(fp)
  802abc:	10c043c5 	stb	r3,271(r2)
  if (d->_g73) {
  802ac0:	e0bffc17 	ldw	r2,-16(fp)
  802ac4:	108043c3 	ldbu	r2,271(r2)
  802ac8:	10803fcc 	andi	r2,r2,255
  802acc:	1080201c 	xori	r2,r2,128
  802ad0:	10bfe004 	addi	r2,r2,-128
  802ad4:	10000b26 	beq	r2,zero,802b04 <logic+0x2874>
    d->AP |= 1;
  802ad8:	e0bffc17 	ldw	r2,-16(fp)
  802adc:	10803183 	ldbu	r2,198(r2)
  802ae0:	10800054 	ori	r2,r2,1
  802ae4:	1007883a 	mov	r3,r2
  802ae8:	e0bffc17 	ldw	r2,-16(fp)
  802aec:	10c03185 	stb	r3,198(r2)
    d->_taken_transitions[13] += 1;
  802af0:	e0bffc17 	ldw	r2,-16(fp)
  802af4:	10801417 	ldw	r2,80(r2)
  802af8:	10c00044 	addi	r3,r2,1
  802afc:	e0bffc17 	ldw	r2,-16(fp)
  802b00:	10c01415 	stw	r3,80(r2)
  }
  d->_g83_e2 = d->_GO || d->_g82 || d->_g73 || d->_g81 && !d->_cg68;
  802b04:	e0bffc17 	ldw	r2,-16(fp)
  802b08:	10805803 	ldbu	r2,352(r2)
  802b0c:	10803fcc 	andi	r2,r2,255
  802b10:	1080201c 	xori	r2,r2,128
  802b14:	10bfe004 	addi	r2,r2,-128
  802b18:	1000181e 	bne	r2,zero,802b7c <logic+0x28ec>
  802b1c:	e0bffc17 	ldw	r2,-16(fp)
  802b20:	10804583 	ldbu	r2,278(r2)
  802b24:	10803fcc 	andi	r2,r2,255
  802b28:	1080201c 	xori	r2,r2,128
  802b2c:	10bfe004 	addi	r2,r2,-128
  802b30:	1000121e 	bne	r2,zero,802b7c <logic+0x28ec>
  802b34:	e0bffc17 	ldw	r2,-16(fp)
  802b38:	108043c3 	ldbu	r2,271(r2)
  802b3c:	10803fcc 	andi	r2,r2,255
  802b40:	1080201c 	xori	r2,r2,128
  802b44:	10bfe004 	addi	r2,r2,-128
  802b48:	10000c1e 	bne	r2,zero,802b7c <logic+0x28ec>
  802b4c:	e0bffc17 	ldw	r2,-16(fp)
  802b50:	10804543 	ldbu	r2,277(r2)
  802b54:	10803fcc 	andi	r2,r2,255
  802b58:	1080201c 	xori	r2,r2,128
  802b5c:	10bfe004 	addi	r2,r2,-128
  802b60:	10000826 	beq	r2,zero,802b84 <logic+0x28f4>
  802b64:	e0bffc17 	ldw	r2,-16(fp)
  802b68:	10805e43 	ldbu	r2,377(r2)
  802b6c:	10803fcc 	andi	r2,r2,255
  802b70:	1080201c 	xori	r2,r2,128
  802b74:	10bfe004 	addi	r2,r2,-128
  802b78:	1000021e 	bne	r2,zero,802b84 <logic+0x28f4>
  802b7c:	00800044 	movi	r2,1
  802b80:	00000106 	br	802b88 <logic+0x28f8>
  802b84:	0005883a 	mov	r2,zero
  802b88:	1007883a 	mov	r3,r2
  802b8c:	e0bffc17 	ldw	r2,-16(fp)
  802b90:	10c068c5 	stb	r3,419(r2)
  d->_g73_e1 = d->_pg100;
  802b94:	e0bffc17 	ldw	r2,-16(fp)
  802b98:	10c06f43 	ldbu	r3,445(r2)
  802b9c:	e0bffc17 	ldw	r2,-16(fp)
  802ba0:	10c06885 	stb	r3,418(r2)
  d->_cg105 = d->V_EVT;
  802ba4:	e0bffc17 	ldw	r2,-16(fp)
  802ba8:	10c03243 	ldbu	r3,201(r2)
  802bac:	e0bffc17 	ldw	r2,-16(fp)
  802bb0:	10c06145 	stb	r3,389(r2)
  d->_g83 = d->_g73_e1 && d->_cg105;
  802bb4:	e0bffc17 	ldw	r2,-16(fp)
  802bb8:	10806883 	ldbu	r2,418(r2)
  802bbc:	10803fcc 	andi	r2,r2,255
  802bc0:	1080201c 	xori	r2,r2,128
  802bc4:	10bfe004 	addi	r2,r2,-128
  802bc8:	10000826 	beq	r2,zero,802bec <logic+0x295c>
  802bcc:	e0bffc17 	ldw	r2,-16(fp)
  802bd0:	10806143 	ldbu	r2,389(r2)
  802bd4:	10803fcc 	andi	r2,r2,255
  802bd8:	1080201c 	xori	r2,r2,128
  802bdc:	10bfe004 	addi	r2,r2,-128
  802be0:	10000226 	beq	r2,zero,802bec <logic+0x295c>
  802be4:	00800044 	movi	r2,1
  802be8:	00000106 	br	802bf0 <logic+0x2960>
  802bec:	0005883a 	mov	r2,zero
  802bf0:	1007883a 	mov	r3,r2
  802bf4:	e0bffc17 	ldw	r2,-16(fp)
  802bf8:	10c045c5 	stb	r3,279(r2)
  if (d->_g83) {
  802bfc:	e0bffc17 	ldw	r2,-16(fp)
  802c00:	108045c3 	ldbu	r2,279(r2)
  802c04:	10803fcc 	andi	r2,r2,255
  802c08:	1080201c 	xori	r2,r2,128
  802c0c:	10bfe004 	addi	r2,r2,-128
  802c10:	10000326 	beq	r2,zero,802c20 <logic+0x2990>
    d->_Pacemaker_local__Atrig6 = 1;
  802c14:	e0bffc17 	ldw	r2,-16(fp)
  802c18:	00c00044 	movi	r3,1
  802c1c:	10c03585 	stb	r3,214(r2)
  }
  d->_g86 = d->_pg163;
  802c20:	e0bffc17 	ldw	r2,-16(fp)
  802c24:	10c06f83 	ldbu	r3,446(r2)
  802c28:	e0bffc17 	ldw	r2,-16(fp)
  802c2c:	10c04685 	stb	r3,282(r2)
  if (d->_g86) {
  802c30:	e0bffc17 	ldw	r2,-16(fp)
  802c34:	10804683 	ldbu	r2,282(r2)
  802c38:	10803fcc 	andi	r2,r2,255
  802c3c:	1080201c 	xori	r2,r2,128
  802c40:	10bfe004 	addi	r2,r2,-128
  802c44:	10001226 	beq	r2,zero,802c90 <logic+0x2a00>
    d->_region3_AVI_t += d->deltaT;
  802c48:	e13ffc17 	ldw	r4,-16(fp)
  802c4c:	20802717 	ldw	r2,156(r4)
  802c50:	20c02817 	ldw	r3,160(r4)
  802c54:	e1bffc17 	ldw	r6,-16(fp)
  802c58:	31002d17 	ldw	r4,180(r6)
  802c5c:	31402e17 	ldw	r5,184(r6)
  802c60:	200d883a 	mov	r6,r4
  802c64:	280f883a 	mov	r7,r5
  802c68:	1009883a 	mov	r4,r2
  802c6c:	180b883a 	mov	r5,r3
  802c70:	0806aa80 	call	806aa8 <__adddf3>
  802c74:	1009883a 	mov	r4,r2
  802c78:	180b883a 	mov	r5,r3
  802c7c:	2005883a 	mov	r2,r4
  802c80:	2807883a 	mov	r3,r5
  802c84:	e13ffc17 	ldw	r4,-16(fp)
  802c88:	20802715 	stw	r2,156(r4)
  802c8c:	20c02815 	stw	r3,160(r4)
  }
  d->_g88 = d->_g73_e1 && !d->_cg105;
  802c90:	e0bffc17 	ldw	r2,-16(fp)
  802c94:	10806883 	ldbu	r2,418(r2)
  802c98:	10803fcc 	andi	r2,r2,255
  802c9c:	1080201c 	xori	r2,r2,128
  802ca0:	10bfe004 	addi	r2,r2,-128
  802ca4:	10000826 	beq	r2,zero,802cc8 <logic+0x2a38>
  802ca8:	e0bffc17 	ldw	r2,-16(fp)
  802cac:	10806143 	ldbu	r2,389(r2)
  802cb0:	10803fcc 	andi	r2,r2,255
  802cb4:	1080201c 	xori	r2,r2,128
  802cb8:	10bfe004 	addi	r2,r2,-128
  802cbc:	1000021e 	bne	r2,zero,802cc8 <logic+0x2a38>
  802cc0:	00800044 	movi	r2,1
  802cc4:	00000106 	br	802ccc <logic+0x2a3c>
  802cc8:	0005883a 	mov	r2,zero
  802ccc:	1007883a 	mov	r3,r2
  802cd0:	e0bffc17 	ldw	r2,-16(fp)
  802cd4:	10c04705 	stb	r3,284(r2)
  d->_cg108 = d->_region3_AVI_t >= d->T_AVI;
  802cd8:	e0bffc17 	ldw	r2,-16(fp)
  802cdc:	14002717 	ldw	r16,156(r2)
  802ce0:	14402817 	ldw	r17,160(r2)
  802ce4:	e0bffc17 	ldw	r2,-16(fp)
  802ce8:	10800117 	ldw	r2,4(r2)
  802cec:	1009883a 	mov	r4,r2
  802cf0:	0808e200 	call	808e20 <__floatsidf>
  802cf4:	1009883a 	mov	r4,r2
  802cf8:	180b883a 	mov	r5,r3
  802cfc:	04800044 	movi	r18,1
  802d00:	200d883a 	mov	r6,r4
  802d04:	280f883a 	mov	r7,r5
  802d08:	8009883a 	mov	r4,r16
  802d0c:	880b883a 	mov	r5,r17
  802d10:	0807c3c0 	call	807c3c <__gedf2>
  802d14:	1000010e 	bge	r2,zero,802d1c <logic+0x2a8c>
  802d18:	0025883a 	mov	r18,zero
  802d1c:	9007883a 	mov	r3,r18
  802d20:	e0bffc17 	ldw	r2,-16(fp)
  802d24:	10c06105 	stb	r3,388(r2)
  d->_g68 = d->_g88 && d->_cg108;
  802d28:	e0bffc17 	ldw	r2,-16(fp)
  802d2c:	10804703 	ldbu	r2,284(r2)
  802d30:	10803fcc 	andi	r2,r2,255
  802d34:	1080201c 	xori	r2,r2,128
  802d38:	10bfe004 	addi	r2,r2,-128
  802d3c:	10000826 	beq	r2,zero,802d60 <logic+0x2ad0>
  802d40:	e0bffc17 	ldw	r2,-16(fp)
  802d44:	10806103 	ldbu	r2,388(r2)
  802d48:	10803fcc 	andi	r2,r2,255
  802d4c:	1080201c 	xori	r2,r2,128
  802d50:	10bfe004 	addi	r2,r2,-128
  802d54:	10000226 	beq	r2,zero,802d60 <logic+0x2ad0>
  802d58:	00800044 	movi	r2,1
  802d5c:	00000106 	br	802d64 <logic+0x2ad4>
  802d60:	0005883a 	mov	r2,zero
  802d64:	1007883a 	mov	r3,r2
  802d68:	e0bffc17 	ldw	r2,-16(fp)
  802d6c:	10c042c5 	stb	r3,267(r2)
  if (d->_g68) {
  802d70:	e0bffc17 	ldw	r2,-16(fp)
  802d74:	108042c3 	ldbu	r2,267(r2)
  802d78:	10803fcc 	andi	r2,r2,255
  802d7c:	1080201c 	xori	r2,r2,128
  802d80:	10bfe004 	addi	r2,r2,-128
  802d84:	10000326 	beq	r2,zero,802d94 <logic+0x2b04>
    d->_Pacemaker_local__Atrig7 = 1;
  802d88:	e0bffc17 	ldw	r2,-16(fp)
  802d8c:	00c00044 	movi	r3,1
  802d90:	10c035c5 	stb	r3,215(r2)
  }
  d->_g87 = d->_pg159;
  802d94:	e0bffc17 	ldw	r2,-16(fp)
  802d98:	10c06fc3 	ldbu	r3,447(r2)
  802d9c:	e0bffc17 	ldw	r2,-16(fp)
  802da0:	10c046c5 	stb	r3,283(r2)
  d->_cg92 = d->A_EVT;
  802da4:	e0bffc17 	ldw	r2,-16(fp)
  802da8:	10c03203 	ldbu	r3,200(r2)
  802dac:	e0bffc17 	ldw	r2,-16(fp)
  802db0:	10c06005 	stb	r3,384(r2)
  d->_g105 = d->_g87 && d->_cg92;
  802db4:	e0bffc17 	ldw	r2,-16(fp)
  802db8:	108046c3 	ldbu	r2,283(r2)
  802dbc:	10803fcc 	andi	r2,r2,255
  802dc0:	1080201c 	xori	r2,r2,128
  802dc4:	10bfe004 	addi	r2,r2,-128
  802dc8:	10000826 	beq	r2,zero,802dec <logic+0x2b5c>
  802dcc:	e0bffc17 	ldw	r2,-16(fp)
  802dd0:	10806003 	ldbu	r2,384(r2)
  802dd4:	10803fcc 	andi	r2,r2,255
  802dd8:	1080201c 	xori	r2,r2,128
  802ddc:	10bfe004 	addi	r2,r2,-128
  802de0:	10000226 	beq	r2,zero,802dec <logic+0x2b5c>
  802de4:	00800044 	movi	r2,1
  802de8:	00000106 	br	802df0 <logic+0x2b60>
  802dec:	0005883a 	mov	r2,zero
  802df0:	1007883a 	mov	r3,r2
  802df4:	e0bffc17 	ldw	r2,-16(fp)
  802df8:	10c049c5 	stb	r3,295(r2)
  if (d->_g105) {
  802dfc:	e0bffc17 	ldw	r2,-16(fp)
  802e00:	108049c3 	ldbu	r2,295(r2)
  802e04:	10803fcc 	andi	r2,r2,255
  802e08:	1080201c 	xori	r2,r2,128
  802e0c:	10bfe004 	addi	r2,r2,-128
  802e10:	10000c26 	beq	r2,zero,802e44 <logic+0x2bb4>
    d->_region3_AVI_t = 0;
  802e14:	e0bffc17 	ldw	r2,-16(fp)
  802e18:	10002715 	stw	zero,156(r2)
  802e1c:	10002815 	stw	zero,160(r2)
    d->_taken_transitions[14] += 1;
  802e20:	e0bffc17 	ldw	r2,-16(fp)
  802e24:	10801517 	ldw	r2,84(r2)
  802e28:	10c00044 	addi	r3,r2,1
  802e2c:	e0bffc17 	ldw	r2,-16(fp)
  802e30:	10c01515 	stw	r3,84(r2)
    d->_Pacemaker_local__Atrig6 = 0;
  802e34:	e0bffc17 	ldw	r2,-16(fp)
  802e38:	10003585 	stb	zero,214(r2)
    d->_Pacemaker_local__Atrig7 = 0;
  802e3c:	e0bffc17 	ldw	r2,-16(fp)
  802e40:	100035c5 	stb	zero,215(r2)
  }
  d->_g99 = d->_pg98;
  802e44:	e0bffc17 	ldw	r2,-16(fp)
  802e48:	10c07003 	ldbu	r3,448(r2)
  802e4c:	e0bffc17 	ldw	r2,-16(fp)
  802e50:	10c048c5 	stb	r3,291(r2)
  d->_g102 = d->_pg101;
  802e54:	e0bffc17 	ldw	r2,-16(fp)
  802e58:	10c07043 	ldbu	r3,449(r2)
  802e5c:	e0bffc17 	ldw	r2,-16(fp)
  802e60:	10c04985 	stb	r3,294(r2)
  d->_g99 = d->_g105 || d->_g99 || d->_g102;
  802e64:	e0bffc17 	ldw	r2,-16(fp)
  802e68:	108049c3 	ldbu	r2,295(r2)
  802e6c:	10803fcc 	andi	r2,r2,255
  802e70:	1080201c 	xori	r2,r2,128
  802e74:	10bfe004 	addi	r2,r2,-128
  802e78:	10000c1e 	bne	r2,zero,802eac <logic+0x2c1c>
  802e7c:	e0bffc17 	ldw	r2,-16(fp)
  802e80:	108048c3 	ldbu	r2,291(r2)
  802e84:	10803fcc 	andi	r2,r2,255
  802e88:	1080201c 	xori	r2,r2,128
  802e8c:	10bfe004 	addi	r2,r2,-128
  802e90:	1000061e 	bne	r2,zero,802eac <logic+0x2c1c>
  802e94:	e0bffc17 	ldw	r2,-16(fp)
  802e98:	10804983 	ldbu	r2,294(r2)
  802e9c:	10803fcc 	andi	r2,r2,255
  802ea0:	1080201c 	xori	r2,r2,128
  802ea4:	10bfe004 	addi	r2,r2,-128
  802ea8:	10000226 	beq	r2,zero,802eb4 <logic+0x2c24>
  802eac:	00800044 	movi	r2,1
  802eb0:	00000106 	br	802eb8 <logic+0x2c28>
  802eb4:	0005883a 	mov	r2,zero
  802eb8:	1007883a 	mov	r3,r2
  802ebc:	e0bffc17 	ldw	r2,-16(fp)
  802ec0:	10c048c5 	stb	r3,291(r2)
  d->_cg95 = d->_region3_AVI_t < d->T_AVI;
  802ec4:	e0bffc17 	ldw	r2,-16(fp)
  802ec8:	14002717 	ldw	r16,156(r2)
  802ecc:	14402817 	ldw	r17,160(r2)
  802ed0:	e0bffc17 	ldw	r2,-16(fp)
  802ed4:	10800117 	ldw	r2,4(r2)
  802ed8:	1009883a 	mov	r4,r2
  802edc:	0808e200 	call	808e20 <__floatsidf>
  802ee0:	1009883a 	mov	r4,r2
  802ee4:	180b883a 	mov	r5,r3
  802ee8:	04800044 	movi	r18,1
  802eec:	200d883a 	mov	r6,r4
  802ef0:	280f883a 	mov	r7,r5
  802ef4:	8009883a 	mov	r4,r16
  802ef8:	880b883a 	mov	r5,r17
  802efc:	0807d180 	call	807d18 <__ledf2>
  802f00:	10000116 	blt	r2,zero,802f08 <logic+0x2c78>
  802f04:	0025883a 	mov	r18,zero
  802f08:	9007883a 	mov	r3,r18
  802f0c:	e0bffc17 	ldw	r2,-16(fp)
  802f10:	10c06045 	stb	r3,385(r2)
  d->_g102 = d->_g99 && !d->_cg95;
  802f14:	e0bffc17 	ldw	r2,-16(fp)
  802f18:	108048c3 	ldbu	r2,291(r2)
  802f1c:	10803fcc 	andi	r2,r2,255
  802f20:	1080201c 	xori	r2,r2,128
  802f24:	10bfe004 	addi	r2,r2,-128
  802f28:	10000826 	beq	r2,zero,802f4c <logic+0x2cbc>
  802f2c:	e0bffc17 	ldw	r2,-16(fp)
  802f30:	10806043 	ldbu	r2,385(r2)
  802f34:	10803fcc 	andi	r2,r2,255
  802f38:	1080201c 	xori	r2,r2,128
  802f3c:	10bfe004 	addi	r2,r2,-128
  802f40:	1000021e 	bne	r2,zero,802f4c <logic+0x2cbc>
  802f44:	00800044 	movi	r2,1
  802f48:	00000106 	br	802f50 <logic+0x2cc0>
  802f4c:	0005883a 	mov	r2,zero
  802f50:	1007883a 	mov	r3,r2
  802f54:	e0bffc17 	ldw	r2,-16(fp)
  802f58:	10c04985 	stb	r3,294(r2)
  d->_cg100 = d->_Pacemaker_local__Atrig6 || d->_Pacemaker_local__Atrig7;
  802f5c:	e0bffc17 	ldw	r2,-16(fp)
  802f60:	10803583 	ldbu	r2,214(r2)
  802f64:	10803fcc 	andi	r2,r2,255
  802f68:	1080201c 	xori	r2,r2,128
  802f6c:	10bfe004 	addi	r2,r2,-128
  802f70:	1000061e 	bne	r2,zero,802f8c <logic+0x2cfc>
  802f74:	e0bffc17 	ldw	r2,-16(fp)
  802f78:	108035c3 	ldbu	r2,215(r2)
  802f7c:	10803fcc 	andi	r2,r2,255
  802f80:	1080201c 	xori	r2,r2,128
  802f84:	10bfe004 	addi	r2,r2,-128
  802f88:	10000226 	beq	r2,zero,802f94 <logic+0x2d04>
  802f8c:	00800044 	movi	r2,1
  802f90:	00000106 	br	802f98 <logic+0x2d08>
  802f94:	0005883a 	mov	r2,zero
  802f98:	1007883a 	mov	r3,r2
  802f9c:	e0bffc17 	ldw	r2,-16(fp)
  802fa0:	10c060c5 	stb	r3,387(r2)
  d->_g101 = d->_g102 && !d->_cg100;
  802fa4:	e0bffc17 	ldw	r2,-16(fp)
  802fa8:	10804983 	ldbu	r2,294(r2)
  802fac:	10803fcc 	andi	r2,r2,255
  802fb0:	1080201c 	xori	r2,r2,128
  802fb4:	10bfe004 	addi	r2,r2,-128
  802fb8:	10000826 	beq	r2,zero,802fdc <logic+0x2d4c>
  802fbc:	e0bffc17 	ldw	r2,-16(fp)
  802fc0:	108060c3 	ldbu	r2,387(r2)
  802fc4:	10803fcc 	andi	r2,r2,255
  802fc8:	1080201c 	xori	r2,r2,128
  802fcc:	10bfe004 	addi	r2,r2,-128
  802fd0:	1000021e 	bne	r2,zero,802fdc <logic+0x2d4c>
  802fd4:	00800044 	movi	r2,1
  802fd8:	00000106 	br	802fe0 <logic+0x2d50>
  802fdc:	0005883a 	mov	r2,zero
  802fe0:	1007883a 	mov	r3,r2
  802fe4:	e0bffc17 	ldw	r2,-16(fp)
  802fe8:	10c04945 	stb	r3,293(r2)
  d->_g95 = d->_g99 && d->_cg95;
  802fec:	e0bffc17 	ldw	r2,-16(fp)
  802ff0:	108048c3 	ldbu	r2,291(r2)
  802ff4:	10803fcc 	andi	r2,r2,255
  802ff8:	1080201c 	xori	r2,r2,128
  802ffc:	10bfe004 	addi	r2,r2,-128
  803000:	10000826 	beq	r2,zero,803024 <logic+0x2d94>
  803004:	e0bffc17 	ldw	r2,-16(fp)
  803008:	10806043 	ldbu	r2,385(r2)
  80300c:	10803fcc 	andi	r2,r2,255
  803010:	1080201c 	xori	r2,r2,128
  803014:	10bfe004 	addi	r2,r2,-128
  803018:	10000226 	beq	r2,zero,803024 <logic+0x2d94>
  80301c:	00800044 	movi	r2,1
  803020:	00000106 	br	803028 <logic+0x2d98>
  803024:	0005883a 	mov	r2,zero
  803028:	1007883a 	mov	r3,r2
  80302c:	e0bffc17 	ldw	r2,-16(fp)
  803030:	10c047c5 	stb	r3,287(r2)
  if (d->_g95) {
  803034:	e0bffc17 	ldw	r2,-16(fp)
  803038:	108047c3 	ldbu	r2,287(r2)
  80303c:	10803fcc 	andi	r2,r2,255
  803040:	1080201c 	xori	r2,r2,128
  803044:	10bfe004 	addi	r2,r2,-128
  803048:	10003426 	beq	r2,zero,80311c <logic+0x2e8c>
    d->sleepT = (d->sleepT < (d->T_AVI - d->_region3_AVI_t)) ? d->sleepT : (d->T_AVI - d->_region3_AVI_t);
  80304c:	e0bffc17 	ldw	r2,-16(fp)
  803050:	14002f17 	ldw	r16,188(r2)
  803054:	14403017 	ldw	r17,192(r2)
  803058:	e0bffc17 	ldw	r2,-16(fp)
  80305c:	10800117 	ldw	r2,4(r2)
  803060:	1009883a 	mov	r4,r2
  803064:	0808e200 	call	808e20 <__floatsidf>
  803068:	1011883a 	mov	r8,r2
  80306c:	1813883a 	mov	r9,r3
  803070:	e13ffc17 	ldw	r4,-16(fp)
  803074:	20802717 	ldw	r2,156(r4)
  803078:	20c02817 	ldw	r3,160(r4)
  80307c:	100d883a 	mov	r6,r2
  803080:	180f883a 	mov	r7,r3
  803084:	4009883a 	mov	r4,r8
  803088:	480b883a 	mov	r5,r9
  80308c:	08085240 	call	808524 <__subdf3>
  803090:	1009883a 	mov	r4,r2
  803094:	180b883a 	mov	r5,r3
  803098:	2005883a 	mov	r2,r4
  80309c:	2807883a 	mov	r3,r5
  8030a0:	100d883a 	mov	r6,r2
  8030a4:	180f883a 	mov	r7,r3
  8030a8:	8009883a 	mov	r4,r16
  8030ac:	880b883a 	mov	r5,r17
  8030b0:	0807d180 	call	807d18 <__ledf2>
  8030b4:	1000040e 	bge	r2,zero,8030c8 <logic+0x2e38>
  8030b8:	e13ffc17 	ldw	r4,-16(fp)
  8030bc:	20802f17 	ldw	r2,188(r4)
  8030c0:	20c03017 	ldw	r3,192(r4)
  8030c4:	00001206 	br	803110 <logic+0x2e80>
  8030c8:	e0bffc17 	ldw	r2,-16(fp)
  8030cc:	10800117 	ldw	r2,4(r2)
  8030d0:	1009883a 	mov	r4,r2
  8030d4:	0808e200 	call	808e20 <__floatsidf>
  8030d8:	1011883a 	mov	r8,r2
  8030dc:	1813883a 	mov	r9,r3
  8030e0:	e13ffc17 	ldw	r4,-16(fp)
  8030e4:	20802717 	ldw	r2,156(r4)
  8030e8:	20c02817 	ldw	r3,160(r4)
  8030ec:	100d883a 	mov	r6,r2
  8030f0:	180f883a 	mov	r7,r3
  8030f4:	4009883a 	mov	r4,r8
  8030f8:	480b883a 	mov	r5,r9
  8030fc:	08085240 	call	808524 <__subdf3>
  803100:	1009883a 	mov	r4,r2
  803104:	180b883a 	mov	r5,r3
  803108:	2005883a 	mov	r2,r4
  80310c:	2807883a 	mov	r3,r5
  803110:	e13ffc17 	ldw	r4,-16(fp)
  803114:	20802f15 	stw	r2,188(r4)
  803118:	20c03015 	stw	r3,192(r4)
  }
  d->_cg96 = d->_Pacemaker_local__Atrig6 || d->_Pacemaker_local__Atrig7;
  80311c:	e0bffc17 	ldw	r2,-16(fp)
  803120:	10803583 	ldbu	r2,214(r2)
  803124:	10803fcc 	andi	r2,r2,255
  803128:	1080201c 	xori	r2,r2,128
  80312c:	10bfe004 	addi	r2,r2,-128
  803130:	1000061e 	bne	r2,zero,80314c <logic+0x2ebc>
  803134:	e0bffc17 	ldw	r2,-16(fp)
  803138:	108035c3 	ldbu	r2,215(r2)
  80313c:	10803fcc 	andi	r2,r2,255
  803140:	1080201c 	xori	r2,r2,128
  803144:	10bfe004 	addi	r2,r2,-128
  803148:	10000226 	beq	r2,zero,803154 <logic+0x2ec4>
  80314c:	00800044 	movi	r2,1
  803150:	00000106 	br	803158 <logic+0x2ec8>
  803154:	0005883a 	mov	r2,zero
  803158:	1007883a 	mov	r3,r2
  80315c:	e0bffc17 	ldw	r2,-16(fp)
  803160:	10c06085 	stb	r3,386(r2)
  d->_g98 = d->_g95 && !d->_cg96;
  803164:	e0bffc17 	ldw	r2,-16(fp)
  803168:	108047c3 	ldbu	r2,287(r2)
  80316c:	10803fcc 	andi	r2,r2,255
  803170:	1080201c 	xori	r2,r2,128
  803174:	10bfe004 	addi	r2,r2,-128
  803178:	10000826 	beq	r2,zero,80319c <logic+0x2f0c>
  80317c:	e0bffc17 	ldw	r2,-16(fp)
  803180:	10806083 	ldbu	r2,386(r2)
  803184:	10803fcc 	andi	r2,r2,255
  803188:	1080201c 	xori	r2,r2,128
  80318c:	10bfe004 	addi	r2,r2,-128
  803190:	1000021e 	bne	r2,zero,80319c <logic+0x2f0c>
  803194:	00800044 	movi	r2,1
  803198:	00000106 	br	8031a0 <logic+0x2f10>
  80319c:	0005883a 	mov	r2,zero
  8031a0:	1007883a 	mov	r3,r2
  8031a4:	e0bffc17 	ldw	r2,-16(fp)
  8031a8:	10c04885 	stb	r3,290(r2)
  d->_g97_e1 = !(d->_g101 || d->_g98);
  8031ac:	e0bffc17 	ldw	r2,-16(fp)
  8031b0:	10804943 	ldbu	r2,293(r2)
  8031b4:	10803fcc 	andi	r2,r2,255
  8031b8:	1080201c 	xori	r2,r2,128
  8031bc:	10bfe004 	addi	r2,r2,-128
  8031c0:	1000081e 	bne	r2,zero,8031e4 <logic+0x2f54>
  8031c4:	e0bffc17 	ldw	r2,-16(fp)
  8031c8:	10804883 	ldbu	r2,290(r2)
  8031cc:	10803fcc 	andi	r2,r2,255
  8031d0:	1080201c 	xori	r2,r2,128
  8031d4:	10bfe004 	addi	r2,r2,-128
  8031d8:	1000021e 	bne	r2,zero,8031e4 <logic+0x2f54>
  8031dc:	00800044 	movi	r2,1
  8031e0:	00000106 	br	8031e8 <logic+0x2f58>
  8031e4:	0005883a 	mov	r2,zero
  8031e8:	1007883a 	mov	r3,r2
  8031ec:	e0bffc17 	ldw	r2,-16(fp)
  8031f0:	10c06905 	stb	r3,420(r2)
  d->_g96 = d->_g95 && d->_cg96 || d->_g102 && d->_cg100;
  8031f4:	e0bffc17 	ldw	r2,-16(fp)
  8031f8:	108047c3 	ldbu	r2,287(r2)
  8031fc:	10803fcc 	andi	r2,r2,255
  803200:	1080201c 	xori	r2,r2,128
  803204:	10bfe004 	addi	r2,r2,-128
  803208:	10000626 	beq	r2,zero,803224 <logic+0x2f94>
  80320c:	e0bffc17 	ldw	r2,-16(fp)
  803210:	10806083 	ldbu	r2,386(r2)
  803214:	10803fcc 	andi	r2,r2,255
  803218:	1080201c 	xori	r2,r2,128
  80321c:	10bfe004 	addi	r2,r2,-128
  803220:	10000c1e 	bne	r2,zero,803254 <logic+0x2fc4>
  803224:	e0bffc17 	ldw	r2,-16(fp)
  803228:	10804983 	ldbu	r2,294(r2)
  80322c:	10803fcc 	andi	r2,r2,255
  803230:	1080201c 	xori	r2,r2,128
  803234:	10bfe004 	addi	r2,r2,-128
  803238:	10000826 	beq	r2,zero,80325c <logic+0x2fcc>
  80323c:	e0bffc17 	ldw	r2,-16(fp)
  803240:	108060c3 	ldbu	r2,387(r2)
  803244:	10803fcc 	andi	r2,r2,255
  803248:	1080201c 	xori	r2,r2,128
  80324c:	10bfe004 	addi	r2,r2,-128
  803250:	10000226 	beq	r2,zero,80325c <logic+0x2fcc>
  803254:	00800044 	movi	r2,1
  803258:	00000106 	br	803260 <logic+0x2fd0>
  80325c:	0005883a 	mov	r2,zero
  803260:	1007883a 	mov	r3,r2
  803264:	e0bffc17 	ldw	r2,-16(fp)
  803268:	10c04805 	stb	r3,288(r2)
  d->_g100 = d->_g105 || d->_g88 && !d->_cg108;
  80326c:	e0bffc17 	ldw	r2,-16(fp)
  803270:	108049c3 	ldbu	r2,295(r2)
  803274:	10803fcc 	andi	r2,r2,255
  803278:	1080201c 	xori	r2,r2,128
  80327c:	10bfe004 	addi	r2,r2,-128
  803280:	10000c1e 	bne	r2,zero,8032b4 <logic+0x3024>
  803284:	e0bffc17 	ldw	r2,-16(fp)
  803288:	10804703 	ldbu	r2,284(r2)
  80328c:	10803fcc 	andi	r2,r2,255
  803290:	1080201c 	xori	r2,r2,128
  803294:	10bfe004 	addi	r2,r2,-128
  803298:	10000826 	beq	r2,zero,8032bc <logic+0x302c>
  80329c:	e0bffc17 	ldw	r2,-16(fp)
  8032a0:	10806103 	ldbu	r2,388(r2)
  8032a4:	10803fcc 	andi	r2,r2,255
  8032a8:	1080201c 	xori	r2,r2,128
  8032ac:	10bfe004 	addi	r2,r2,-128
  8032b0:	1000021e 	bne	r2,zero,8032bc <logic+0x302c>
  8032b4:	00800044 	movi	r2,1
  8032b8:	00000106 	br	8032c0 <logic+0x3030>
  8032bc:	0005883a 	mov	r2,zero
  8032c0:	1007883a 	mov	r3,r2
  8032c4:	e0bffc17 	ldw	r2,-16(fp)
  8032c8:	10c04905 	stb	r3,292(r2)
  d->_g93 = !d->_g100;
  8032cc:	e0bffc17 	ldw	r2,-16(fp)
  8032d0:	10804903 	ldbu	r2,292(r2)
  8032d4:	10803fcc 	andi	r2,r2,255
  8032d8:	1080201c 	xori	r2,r2,128
  8032dc:	10bfe004 	addi	r2,r2,-128
  8032e0:	1005003a 	cmpeq	r2,r2,zero
  8032e4:	1007883a 	mov	r3,r2
  8032e8:	e0bffc17 	ldw	r2,-16(fp)
  8032ec:	10c04785 	stb	r3,286(r2)
  d->_g108 = d->_g83 || d->_g68;
  8032f0:	e0bffc17 	ldw	r2,-16(fp)
  8032f4:	108045c3 	ldbu	r2,279(r2)
  8032f8:	10803fcc 	andi	r2,r2,255
  8032fc:	1080201c 	xori	r2,r2,128
  803300:	10bfe004 	addi	r2,r2,-128
  803304:	1000061e 	bne	r2,zero,803320 <logic+0x3090>
  803308:	e0bffc17 	ldw	r2,-16(fp)
  80330c:	108042c3 	ldbu	r2,267(r2)
  803310:	10803fcc 	andi	r2,r2,255
  803314:	1080201c 	xori	r2,r2,128
  803318:	10bfe004 	addi	r2,r2,-128
  80331c:	10000226 	beq	r2,zero,803328 <logic+0x3098>
  803320:	00800044 	movi	r2,1
  803324:	00000106 	br	80332c <logic+0x309c>
  803328:	0005883a 	mov	r2,zero
  80332c:	1007883a 	mov	r3,r2
  803330:	e0bffc17 	ldw	r2,-16(fp)
  803334:	10c04a85 	stb	r3,298(r2)
  d->_g109 = (d->_g97_e1 || d->_g96) && (d->_g93 || d->_g108) && (d->_g96 || d->_g108);
  803338:	e0bffc17 	ldw	r2,-16(fp)
  80333c:	10806903 	ldbu	r2,420(r2)
  803340:	10803fcc 	andi	r2,r2,255
  803344:	1080201c 	xori	r2,r2,128
  803348:	10bfe004 	addi	r2,r2,-128
  80334c:	1000061e 	bne	r2,zero,803368 <logic+0x30d8>
  803350:	e0bffc17 	ldw	r2,-16(fp)
  803354:	10804803 	ldbu	r2,288(r2)
  803358:	10803fcc 	andi	r2,r2,255
  80335c:	1080201c 	xori	r2,r2,128
  803360:	10bfe004 	addi	r2,r2,-128
  803364:	10001a26 	beq	r2,zero,8033d0 <logic+0x3140>
  803368:	e0bffc17 	ldw	r2,-16(fp)
  80336c:	10804783 	ldbu	r2,286(r2)
  803370:	10803fcc 	andi	r2,r2,255
  803374:	1080201c 	xori	r2,r2,128
  803378:	10bfe004 	addi	r2,r2,-128
  80337c:	1000061e 	bne	r2,zero,803398 <logic+0x3108>
  803380:	e0bffc17 	ldw	r2,-16(fp)
  803384:	10804a83 	ldbu	r2,298(r2)
  803388:	10803fcc 	andi	r2,r2,255
  80338c:	1080201c 	xori	r2,r2,128
  803390:	10bfe004 	addi	r2,r2,-128
  803394:	10000e26 	beq	r2,zero,8033d0 <logic+0x3140>
  803398:	e0bffc17 	ldw	r2,-16(fp)
  80339c:	10804803 	ldbu	r2,288(r2)
  8033a0:	10803fcc 	andi	r2,r2,255
  8033a4:	1080201c 	xori	r2,r2,128
  8033a8:	10bfe004 	addi	r2,r2,-128
  8033ac:	1000061e 	bne	r2,zero,8033c8 <logic+0x3138>
  8033b0:	e0bffc17 	ldw	r2,-16(fp)
  8033b4:	10804a83 	ldbu	r2,298(r2)
  8033b8:	10803fcc 	andi	r2,r2,255
  8033bc:	1080201c 	xori	r2,r2,128
  8033c0:	10bfe004 	addi	r2,r2,-128
  8033c4:	10000226 	beq	r2,zero,8033d0 <logic+0x3140>
  8033c8:	00800044 	movi	r2,1
  8033cc:	00000106 	br	8033d4 <logic+0x3144>
  8033d0:	0005883a 	mov	r2,zero
  8033d4:	1007883a 	mov	r3,r2
  8033d8:	e0bffc17 	ldw	r2,-16(fp)
  8033dc:	10c04ac5 	stb	r3,299(r2)
  d->_cg110 = d->_Pacemaker_local__Atrig6;
  8033e0:	e0bffc17 	ldw	r2,-16(fp)
  8033e4:	10c03583 	ldbu	r3,214(r2)
  8033e8:	e0bffc17 	ldw	r2,-16(fp)
  8033ec:	10c06185 	stb	r3,390(r2)
  d->_g106 = d->_g109 && d->_cg110;
  8033f0:	e0bffc17 	ldw	r2,-16(fp)
  8033f4:	10804ac3 	ldbu	r2,299(r2)
  8033f8:	10803fcc 	andi	r2,r2,255
  8033fc:	1080201c 	xori	r2,r2,128
  803400:	10bfe004 	addi	r2,r2,-128
  803404:	10000826 	beq	r2,zero,803428 <logic+0x3198>
  803408:	e0bffc17 	ldw	r2,-16(fp)
  80340c:	10806183 	ldbu	r2,390(r2)
  803410:	10803fcc 	andi	r2,r2,255
  803414:	1080201c 	xori	r2,r2,128
  803418:	10bfe004 	addi	r2,r2,-128
  80341c:	10000226 	beq	r2,zero,803428 <logic+0x3198>
  803420:	00800044 	movi	r2,1
  803424:	00000106 	br	80342c <logic+0x319c>
  803428:	0005883a 	mov	r2,zero
  80342c:	1007883a 	mov	r3,r2
  803430:	e0bffc17 	ldw	r2,-16(fp)
  803434:	10c04a05 	stb	r3,296(r2)
  if (d->_g106) {
  803438:	e0bffc17 	ldw	r2,-16(fp)
  80343c:	10804a03 	ldbu	r2,296(r2)
  803440:	10803fcc 	andi	r2,r2,255
  803444:	1080201c 	xori	r2,r2,128
  803448:	10bfe004 	addi	r2,r2,-128
  80344c:	10000526 	beq	r2,zero,803464 <logic+0x31d4>
    d->_taken_transitions[15] += 1;
  803450:	e0bffc17 	ldw	r2,-16(fp)
  803454:	10801617 	ldw	r2,88(r2)
  803458:	10c00044 	addi	r3,r2,1
  80345c:	e0bffc17 	ldw	r2,-16(fp)
  803460:	10c01615 	stw	r3,88(r2)
  }
  d->_g107_e2 = d->_pg111;
  803464:	e0bffc17 	ldw	r2,-16(fp)
  803468:	10c07083 	ldbu	r3,450(r2)
  80346c:	e0bffc17 	ldw	r2,-16(fp)
  803470:	10c06945 	stb	r3,421(r2)
  d->_cg114 = d->V_EVT;
  803474:	e0bffc17 	ldw	r2,-16(fp)
  803478:	10c03243 	ldbu	r3,201(r2)
  80347c:	e0bffc17 	ldw	r2,-16(fp)
  803480:	10c06205 	stb	r3,392(r2)
  d->_g97 = d->_g107_e2 && d->_cg114;
  803484:	e0bffc17 	ldw	r2,-16(fp)
  803488:	10806943 	ldbu	r2,421(r2)
  80348c:	10803fcc 	andi	r2,r2,255
  803490:	1080201c 	xori	r2,r2,128
  803494:	10bfe004 	addi	r2,r2,-128
  803498:	10000826 	beq	r2,zero,8034bc <logic+0x322c>
  80349c:	e0bffc17 	ldw	r2,-16(fp)
  8034a0:	10806203 	ldbu	r2,392(r2)
  8034a4:	10803fcc 	andi	r2,r2,255
  8034a8:	1080201c 	xori	r2,r2,128
  8034ac:	10bfe004 	addi	r2,r2,-128
  8034b0:	10000226 	beq	r2,zero,8034bc <logic+0x322c>
  8034b4:	00800044 	movi	r2,1
  8034b8:	00000106 	br	8034c0 <logic+0x3230>
  8034bc:	0005883a 	mov	r2,zero
  8034c0:	1007883a 	mov	r3,r2
  8034c4:	e0bffc17 	ldw	r2,-16(fp)
  8034c8:	10c04845 	stb	r3,289(r2)
  if (d->_g97) {
  8034cc:	e0bffc17 	ldw	r2,-16(fp)
  8034d0:	10804843 	ldbu	r2,289(r2)
  8034d4:	10803fcc 	andi	r2,r2,255
  8034d8:	1080201c 	xori	r2,r2,128
  8034dc:	10bfe004 	addi	r2,r2,-128
  8034e0:	10000526 	beq	r2,zero,8034f8 <logic+0x3268>
    d->_taken_transitions[17] += 1;
  8034e4:	e0bffc17 	ldw	r2,-16(fp)
  8034e8:	10801817 	ldw	r2,96(r2)
  8034ec:	10c00044 	addi	r3,r2,1
  8034f0:	e0bffc17 	ldw	r2,-16(fp)
  8034f4:	10c01815 	stw	r3,96(r2)
  }
  d->_g107 = d->_pg137;
  8034f8:	e0bffc17 	ldw	r2,-16(fp)
  8034fc:	10c070c3 	ldbu	r3,451(r2)
  803500:	e0bffc17 	ldw	r2,-16(fp)
  803504:	10c04a45 	stb	r3,297(r2)
  d->_cg150 = d->V_EVT;
  803508:	e0bffc17 	ldw	r2,-16(fp)
  80350c:	10c03243 	ldbu	r3,201(r2)
  803510:	e0bffc17 	ldw	r2,-16(fp)
  803514:	10c06505 	stb	r3,404(r2)
  d->_g97_e1 = d->_g107 && d->_cg150;
  803518:	e0bffc17 	ldw	r2,-16(fp)
  80351c:	10804a43 	ldbu	r2,297(r2)
  803520:	10803fcc 	andi	r2,r2,255
  803524:	1080201c 	xori	r2,r2,128
  803528:	10bfe004 	addi	r2,r2,-128
  80352c:	10000826 	beq	r2,zero,803550 <logic+0x32c0>
  803530:	e0bffc17 	ldw	r2,-16(fp)
  803534:	10806503 	ldbu	r2,404(r2)
  803538:	10803fcc 	andi	r2,r2,255
  80353c:	1080201c 	xori	r2,r2,128
  803540:	10bfe004 	addi	r2,r2,-128
  803544:	10000226 	beq	r2,zero,803550 <logic+0x32c0>
  803548:	00800044 	movi	r2,1
  80354c:	00000106 	br	803554 <logic+0x32c4>
  803550:	0005883a 	mov	r2,zero
  803554:	1007883a 	mov	r3,r2
  803558:	e0bffc17 	ldw	r2,-16(fp)
  80355c:	10c06905 	stb	r3,420(r2)
  if (d->_g97_e1) {
  803560:	e0bffc17 	ldw	r2,-16(fp)
  803564:	10806903 	ldbu	r2,420(r2)
  803568:	10803fcc 	andi	r2,r2,255
  80356c:	1080201c 	xori	r2,r2,128
  803570:	10bfe004 	addi	r2,r2,-128
  803574:	10000326 	beq	r2,zero,803584 <logic+0x32f4>
    d->uri_active = 1;
  803578:	e0bffc17 	ldw	r2,-16(fp)
  80357c:	00c00044 	movi	r3,1
  803580:	10c00005 	stb	r3,0(r2)
  }
  d->_g162 = d->_pg171;
  803584:	e0bffc17 	ldw	r2,-16(fp)
  803588:	10c07103 	ldbu	r3,452(r2)
  80358c:	e0bffc17 	ldw	r2,-16(fp)
  803590:	10c05445 	stb	r3,337(r2)
  d->_g156 = d->_pg150;
  803594:	e0bffc17 	ldw	r2,-16(fp)
  803598:	10c07143 	ldbu	r3,453(r2)
  80359c:	e0bffc17 	ldw	r2,-16(fp)
  8035a0:	10c05305 	stb	r3,332(r2)
  d->_g159_e1 = !(d->_g162 || d->_g156);
  8035a4:	e0bffc17 	ldw	r2,-16(fp)
  8035a8:	10805443 	ldbu	r2,337(r2)
  8035ac:	10803fcc 	andi	r2,r2,255
  8035b0:	1080201c 	xori	r2,r2,128
  8035b4:	10bfe004 	addi	r2,r2,-128
  8035b8:	1000081e 	bne	r2,zero,8035dc <logic+0x334c>
  8035bc:	e0bffc17 	ldw	r2,-16(fp)
  8035c0:	10805303 	ldbu	r2,332(r2)
  8035c4:	10803fcc 	andi	r2,r2,255
  8035c8:	1080201c 	xori	r2,r2,128
  8035cc:	10bfe004 	addi	r2,r2,-128
  8035d0:	1000021e 	bne	r2,zero,8035dc <logic+0x334c>
  8035d4:	00800044 	movi	r2,1
  8035d8:	00000106 	br	8035e0 <logic+0x3350>
  8035dc:	0005883a 	mov	r2,zero
  8035e0:	1007883a 	mov	r3,r2
  8035e4:	e0bffc17 	ldw	r2,-16(fp)
  8035e8:	10c06a05 	stb	r3,424(r2)
  d->_g166 = d->_pg172;
  8035ec:	e0bffc17 	ldw	r2,-16(fp)
  8035f0:	10c07183 	ldbu	r3,454(r2)
  8035f4:	e0bffc17 	ldw	r2,-16(fp)
  8035f8:	10c054c5 	stb	r3,339(r2)
  d->_cg166 = d->V_EVT;
  8035fc:	e0bffc17 	ldw	r2,-16(fp)
  803600:	10c03243 	ldbu	r3,201(r2)
  803604:	e0bffc17 	ldw	r2,-16(fp)
  803608:	10c06705 	stb	r3,412(r2)
  d->_g167 = d->_g166 && d->_cg166;
  80360c:	e0bffc17 	ldw	r2,-16(fp)
  803610:	108054c3 	ldbu	r2,339(r2)
  803614:	10803fcc 	andi	r2,r2,255
  803618:	1080201c 	xori	r2,r2,128
  80361c:	10bfe004 	addi	r2,r2,-128
  803620:	10000826 	beq	r2,zero,803644 <logic+0x33b4>
  803624:	e0bffc17 	ldw	r2,-16(fp)
  803628:	10806703 	ldbu	r2,412(r2)
  80362c:	10803fcc 	andi	r2,r2,255
  803630:	1080201c 	xori	r2,r2,128
  803634:	10bfe004 	addi	r2,r2,-128
  803638:	10000226 	beq	r2,zero,803644 <logic+0x33b4>
  80363c:	00800044 	movi	r2,1
  803640:	00000106 	br	803648 <logic+0x33b8>
  803644:	0005883a 	mov	r2,zero
  803648:	1007883a 	mov	r3,r2
  80364c:	e0bffc17 	ldw	r2,-16(fp)
  803650:	10c05505 	stb	r3,340(r2)
  if (d->_g167) {
  803654:	e0bffc17 	ldw	r2,-16(fp)
  803658:	10805503 	ldbu	r2,340(r2)
  80365c:	10803fcc 	andi	r2,r2,255
  803660:	1080201c 	xori	r2,r2,128
  803664:	10bfe004 	addi	r2,r2,-128
  803668:	10000326 	beq	r2,zero,803678 <logic+0x33e8>
    d->_Pacemaker_local__Atrig10 = 1;
  80366c:	e0bffc17 	ldw	r2,-16(fp)
  803670:	00c00044 	movi	r3,1
  803674:	10c03685 	stb	r3,218(r2)
  }
  d->_g201 = d->_pg152;
  803678:	e0bffc17 	ldw	r2,-16(fp)
  80367c:	10c071c3 	ldbu	r3,455(r2)
  803680:	e0bffc17 	ldw	r2,-16(fp)
  803684:	10c05745 	stb	r3,349(r2)
  if (d->_g201) {
  803688:	e0bffc17 	ldw	r2,-16(fp)
  80368c:	10805743 	ldbu	r2,349(r2)
  803690:	10803fcc 	andi	r2,r2,255
  803694:	1080201c 	xori	r2,r2,128
  803698:	10bfe004 	addi	r2,r2,-128
  80369c:	10001226 	beq	r2,zero,8036e8 <logic+0x3458>
    d->_region5_URI_t += d->deltaT;
  8036a0:	e13ffc17 	ldw	r4,-16(fp)
  8036a4:	20802b17 	ldw	r2,172(r4)
  8036a8:	20c02c17 	ldw	r3,176(r4)
  8036ac:	e1bffc17 	ldw	r6,-16(fp)
  8036b0:	31002d17 	ldw	r4,180(r6)
  8036b4:	31402e17 	ldw	r5,184(r6)
  8036b8:	200d883a 	mov	r6,r4
  8036bc:	280f883a 	mov	r7,r5
  8036c0:	1009883a 	mov	r4,r2
  8036c4:	180b883a 	mov	r5,r3
  8036c8:	0806aa80 	call	806aa8 <__adddf3>
  8036cc:	1009883a 	mov	r4,r2
  8036d0:	180b883a 	mov	r5,r3
  8036d4:	2005883a 	mov	r2,r4
  8036d8:	2807883a 	mov	r3,r5
  8036dc:	e13ffc17 	ldw	r4,-16(fp)
  8036e0:	20802b15 	stw	r2,172(r4)
  8036e4:	20c02c15 	stw	r3,176(r4)
  }
  d->_g169 = d->_g166 && !d->_cg166;
  8036e8:	e0bffc17 	ldw	r2,-16(fp)
  8036ec:	108054c3 	ldbu	r2,339(r2)
  8036f0:	10803fcc 	andi	r2,r2,255
  8036f4:	1080201c 	xori	r2,r2,128
  8036f8:	10bfe004 	addi	r2,r2,-128
  8036fc:	10000826 	beq	r2,zero,803720 <logic+0x3490>
  803700:	e0bffc17 	ldw	r2,-16(fp)
  803704:	10806703 	ldbu	r2,412(r2)
  803708:	10803fcc 	andi	r2,r2,255
  80370c:	1080201c 	xori	r2,r2,128
  803710:	10bfe004 	addi	r2,r2,-128
  803714:	1000021e 	bne	r2,zero,803720 <logic+0x3490>
  803718:	00800044 	movi	r2,1
  80371c:	00000106 	br	803724 <logic+0x3494>
  803720:	0005883a 	mov	r2,zero
  803724:	1007883a 	mov	r3,r2
  803728:	e0bffc17 	ldw	r2,-16(fp)
  80372c:	10c05585 	stb	r3,342(r2)
  d->_cg169 = d->_region5_URI_t >= d->T_URI;
  803730:	e0bffc17 	ldw	r2,-16(fp)
  803734:	14002b17 	ldw	r16,172(r2)
  803738:	14402c17 	ldw	r17,176(r2)
  80373c:	e0bffc17 	ldw	r2,-16(fp)
  803740:	10800617 	ldw	r2,24(r2)
  803744:	1009883a 	mov	r4,r2
  803748:	0808e200 	call	808e20 <__floatsidf>
  80374c:	1009883a 	mov	r4,r2
  803750:	180b883a 	mov	r5,r3
  803754:	04800044 	movi	r18,1
  803758:	200d883a 	mov	r6,r4
  80375c:	280f883a 	mov	r7,r5
  803760:	8009883a 	mov	r4,r16
  803764:	880b883a 	mov	r5,r17
  803768:	0807c3c0 	call	807c3c <__gedf2>
  80376c:	1000010e 	bge	r2,zero,803774 <logic+0x34e4>
  803770:	0025883a 	mov	r18,zero
  803774:	9007883a 	mov	r3,r18
  803778:	e0bffc17 	ldw	r2,-16(fp)
  80377c:	10c066c5 	stb	r3,411(r2)
  d->_g170 = d->_g169 && d->_cg169;
  803780:	e0bffc17 	ldw	r2,-16(fp)
  803784:	10805583 	ldbu	r2,342(r2)
  803788:	10803fcc 	andi	r2,r2,255
  80378c:	1080201c 	xori	r2,r2,128
  803790:	10bfe004 	addi	r2,r2,-128
  803794:	10000826 	beq	r2,zero,8037b8 <logic+0x3528>
  803798:	e0bffc17 	ldw	r2,-16(fp)
  80379c:	108066c3 	ldbu	r2,411(r2)
  8037a0:	10803fcc 	andi	r2,r2,255
  8037a4:	1080201c 	xori	r2,r2,128
  8037a8:	10bfe004 	addi	r2,r2,-128
  8037ac:	10000226 	beq	r2,zero,8037b8 <logic+0x3528>
  8037b0:	00800044 	movi	r2,1
  8037b4:	00000106 	br	8037bc <logic+0x352c>
  8037b8:	0005883a 	mov	r2,zero
  8037bc:	1007883a 	mov	r3,r2
  8037c0:	e0bffc17 	ldw	r2,-16(fp)
  8037c4:	10c055c5 	stb	r3,343(r2)
  if (d->_g170) {
  8037c8:	e0bffc17 	ldw	r2,-16(fp)
  8037cc:	108055c3 	ldbu	r2,343(r2)
  8037d0:	10803fcc 	andi	r2,r2,255
  8037d4:	1080201c 	xori	r2,r2,128
  8037d8:	10bfe004 	addi	r2,r2,-128
  8037dc:	10000326 	beq	r2,zero,8037ec <logic+0x355c>
    d->_Pacemaker_local__Atrig11 = 1;
  8037e0:	e0bffc17 	ldw	r2,-16(fp)
  8037e4:	00c00044 	movi	r3,1
  8037e8:	10c036c5 	stb	r3,219(r2)
  }
  d->_g156 = d->_g156 || d->_g162;
  8037ec:	e0bffc17 	ldw	r2,-16(fp)
  8037f0:	10805303 	ldbu	r2,332(r2)
  8037f4:	10803fcc 	andi	r2,r2,255
  8037f8:	1080201c 	xori	r2,r2,128
  8037fc:	10bfe004 	addi	r2,r2,-128
  803800:	1000061e 	bne	r2,zero,80381c <logic+0x358c>
  803804:	e0bffc17 	ldw	r2,-16(fp)
  803808:	10805443 	ldbu	r2,337(r2)
  80380c:	10803fcc 	andi	r2,r2,255
  803810:	1080201c 	xori	r2,r2,128
  803814:	10bfe004 	addi	r2,r2,-128
  803818:	10000226 	beq	r2,zero,803824 <logic+0x3594>
  80381c:	00800044 	movi	r2,1
  803820:	00000106 	br	803828 <logic+0x3598>
  803824:	0005883a 	mov	r2,zero
  803828:	1007883a 	mov	r3,r2
  80382c:	e0bffc17 	ldw	r2,-16(fp)
  803830:	10c05305 	stb	r3,332(r2)
  d->_cg157 = d->_region5_URI_t < d->T_URI;
  803834:	e0bffc17 	ldw	r2,-16(fp)
  803838:	14002b17 	ldw	r16,172(r2)
  80383c:	14402c17 	ldw	r17,176(r2)
  803840:	e0bffc17 	ldw	r2,-16(fp)
  803844:	10800617 	ldw	r2,24(r2)
  803848:	1009883a 	mov	r4,r2
  80384c:	0808e200 	call	808e20 <__floatsidf>
  803850:	1009883a 	mov	r4,r2
  803854:	180b883a 	mov	r5,r3
  803858:	04800044 	movi	r18,1
  80385c:	200d883a 	mov	r6,r4
  803860:	280f883a 	mov	r7,r5
  803864:	8009883a 	mov	r4,r16
  803868:	880b883a 	mov	r5,r17
  80386c:	0807d180 	call	807d18 <__ledf2>
  803870:	10000116 	blt	r2,zero,803878 <logic+0x35e8>
  803874:	0025883a 	mov	r18,zero
  803878:	9007883a 	mov	r3,r18
  80387c:	e0bffc17 	ldw	r2,-16(fp)
  803880:	10c06605 	stb	r3,408(r2)
  d->_g162 = d->_g156 && d->_cg157;
  803884:	e0bffc17 	ldw	r2,-16(fp)
  803888:	10805303 	ldbu	r2,332(r2)
  80388c:	10803fcc 	andi	r2,r2,255
  803890:	1080201c 	xori	r2,r2,128
  803894:	10bfe004 	addi	r2,r2,-128
  803898:	10000826 	beq	r2,zero,8038bc <logic+0x362c>
  80389c:	e0bffc17 	ldw	r2,-16(fp)
  8038a0:	10806603 	ldbu	r2,408(r2)
  8038a4:	10803fcc 	andi	r2,r2,255
  8038a8:	1080201c 	xori	r2,r2,128
  8038ac:	10bfe004 	addi	r2,r2,-128
  8038b0:	10000226 	beq	r2,zero,8038bc <logic+0x362c>
  8038b4:	00800044 	movi	r2,1
  8038b8:	00000106 	br	8038c0 <logic+0x3630>
  8038bc:	0005883a 	mov	r2,zero
  8038c0:	1007883a 	mov	r3,r2
  8038c4:	e0bffc17 	ldw	r2,-16(fp)
  8038c8:	10c05445 	stb	r3,337(r2)
  if (d->_g162) {
  8038cc:	e0bffc17 	ldw	r2,-16(fp)
  8038d0:	10805443 	ldbu	r2,337(r2)
  8038d4:	10803fcc 	andi	r2,r2,255
  8038d8:	1080201c 	xori	r2,r2,128
  8038dc:	10bfe004 	addi	r2,r2,-128
  8038e0:	10003426 	beq	r2,zero,8039b4 <logic+0x3724>
    d->sleepT = (d->sleepT < (d->T_URI - d->_region5_URI_t)) ? d->sleepT : (d->T_URI - d->_region5_URI_t);
  8038e4:	e0bffc17 	ldw	r2,-16(fp)
  8038e8:	14002f17 	ldw	r16,188(r2)
  8038ec:	14403017 	ldw	r17,192(r2)
  8038f0:	e0bffc17 	ldw	r2,-16(fp)
  8038f4:	10800617 	ldw	r2,24(r2)
  8038f8:	1009883a 	mov	r4,r2
  8038fc:	0808e200 	call	808e20 <__floatsidf>
  803900:	1011883a 	mov	r8,r2
  803904:	1813883a 	mov	r9,r3
  803908:	e13ffc17 	ldw	r4,-16(fp)
  80390c:	20802b17 	ldw	r2,172(r4)
  803910:	20c02c17 	ldw	r3,176(r4)
  803914:	100d883a 	mov	r6,r2
  803918:	180f883a 	mov	r7,r3
  80391c:	4009883a 	mov	r4,r8
  803920:	480b883a 	mov	r5,r9
  803924:	08085240 	call	808524 <__subdf3>
  803928:	1009883a 	mov	r4,r2
  80392c:	180b883a 	mov	r5,r3
  803930:	2005883a 	mov	r2,r4
  803934:	2807883a 	mov	r3,r5
  803938:	100d883a 	mov	r6,r2
  80393c:	180f883a 	mov	r7,r3
  803940:	8009883a 	mov	r4,r16
  803944:	880b883a 	mov	r5,r17
  803948:	0807d180 	call	807d18 <__ledf2>
  80394c:	1000040e 	bge	r2,zero,803960 <logic+0x36d0>
  803950:	e13ffc17 	ldw	r4,-16(fp)
  803954:	20802f17 	ldw	r2,188(r4)
  803958:	20c03017 	ldw	r3,192(r4)
  80395c:	00001206 	br	8039a8 <logic+0x3718>
  803960:	e0bffc17 	ldw	r2,-16(fp)
  803964:	10800617 	ldw	r2,24(r2)
  803968:	1009883a 	mov	r4,r2
  80396c:	0808e200 	call	808e20 <__floatsidf>
  803970:	1011883a 	mov	r8,r2
  803974:	1813883a 	mov	r9,r3
  803978:	e13ffc17 	ldw	r4,-16(fp)
  80397c:	20802b17 	ldw	r2,172(r4)
  803980:	20c02c17 	ldw	r3,176(r4)
  803984:	100d883a 	mov	r6,r2
  803988:	180f883a 	mov	r7,r3
  80398c:	4009883a 	mov	r4,r8
  803990:	480b883a 	mov	r5,r9
  803994:	08085240 	call	808524 <__subdf3>
  803998:	1009883a 	mov	r4,r2
  80399c:	180b883a 	mov	r5,r3
  8039a0:	2005883a 	mov	r2,r4
  8039a4:	2807883a 	mov	r3,r5
  8039a8:	e13ffc17 	ldw	r4,-16(fp)
  8039ac:	20802f15 	stw	r2,188(r4)
  8039b0:	20c03015 	stw	r3,192(r4)
  }
  d->_cg158 = d->_Pacemaker_local__Atrig10 || d->_Pacemaker_local__Atrig11;
  8039b4:	e0bffc17 	ldw	r2,-16(fp)
  8039b8:	10803683 	ldbu	r2,218(r2)
  8039bc:	10803fcc 	andi	r2,r2,255
  8039c0:	1080201c 	xori	r2,r2,128
  8039c4:	10bfe004 	addi	r2,r2,-128
  8039c8:	1000061e 	bne	r2,zero,8039e4 <logic+0x3754>
  8039cc:	e0bffc17 	ldw	r2,-16(fp)
  8039d0:	108036c3 	ldbu	r2,219(r2)
  8039d4:	10803fcc 	andi	r2,r2,255
  8039d8:	1080201c 	xori	r2,r2,128
  8039dc:	10bfe004 	addi	r2,r2,-128
  8039e0:	10000226 	beq	r2,zero,8039ec <logic+0x375c>
  8039e4:	00800044 	movi	r2,1
  8039e8:	00000106 	br	8039f0 <logic+0x3760>
  8039ec:	0005883a 	mov	r2,zero
  8039f0:	1007883a 	mov	r3,r2
  8039f4:	e0bffc17 	ldw	r2,-16(fp)
  8039f8:	10c065c5 	stb	r3,407(r2)
  d->_g157 = d->_g156 && !d->_cg157;
  8039fc:	e0bffc17 	ldw	r2,-16(fp)
  803a00:	10805303 	ldbu	r2,332(r2)
  803a04:	10803fcc 	andi	r2,r2,255
  803a08:	1080201c 	xori	r2,r2,128
  803a0c:	10bfe004 	addi	r2,r2,-128
  803a10:	10000826 	beq	r2,zero,803a34 <logic+0x37a4>
  803a14:	e0bffc17 	ldw	r2,-16(fp)
  803a18:	10806603 	ldbu	r2,408(r2)
  803a1c:	10803fcc 	andi	r2,r2,255
  803a20:	1080201c 	xori	r2,r2,128
  803a24:	10bfe004 	addi	r2,r2,-128
  803a28:	1000021e 	bne	r2,zero,803a34 <logic+0x37a4>
  803a2c:	00800044 	movi	r2,1
  803a30:	00000106 	br	803a38 <logic+0x37a8>
  803a34:	0005883a 	mov	r2,zero
  803a38:	1007883a 	mov	r3,r2
  803a3c:	e0bffc17 	ldw	r2,-16(fp)
  803a40:	10c05345 	stb	r3,333(r2)
  d->_cg160 = d->_Pacemaker_local__Atrig10 || d->_Pacemaker_local__Atrig11;
  803a44:	e0bffc17 	ldw	r2,-16(fp)
  803a48:	10803683 	ldbu	r2,218(r2)
  803a4c:	10803fcc 	andi	r2,r2,255
  803a50:	1080201c 	xori	r2,r2,128
  803a54:	10bfe004 	addi	r2,r2,-128
  803a58:	1000061e 	bne	r2,zero,803a74 <logic+0x37e4>
  803a5c:	e0bffc17 	ldw	r2,-16(fp)
  803a60:	108036c3 	ldbu	r2,219(r2)
  803a64:	10803fcc 	andi	r2,r2,255
  803a68:	1080201c 	xori	r2,r2,128
  803a6c:	10bfe004 	addi	r2,r2,-128
  803a70:	10000226 	beq	r2,zero,803a7c <logic+0x37ec>
  803a74:	00800044 	movi	r2,1
  803a78:	00000106 	br	803a80 <logic+0x37f0>
  803a7c:	0005883a 	mov	r2,zero
  803a80:	1007883a 	mov	r3,r2
  803a84:	e0bffc17 	ldw	r2,-16(fp)
  803a88:	10c06645 	stb	r3,409(r2)
  d->_g159 = d->_g162 && d->_cg158 || d->_g157 && d->_cg160;
  803a8c:	e0bffc17 	ldw	r2,-16(fp)
  803a90:	10805443 	ldbu	r2,337(r2)
  803a94:	10803fcc 	andi	r2,r2,255
  803a98:	1080201c 	xori	r2,r2,128
  803a9c:	10bfe004 	addi	r2,r2,-128
  803aa0:	10000626 	beq	r2,zero,803abc <logic+0x382c>
  803aa4:	e0bffc17 	ldw	r2,-16(fp)
  803aa8:	108065c3 	ldbu	r2,407(r2)
  803aac:	10803fcc 	andi	r2,r2,255
  803ab0:	1080201c 	xori	r2,r2,128
  803ab4:	10bfe004 	addi	r2,r2,-128
  803ab8:	10000c1e 	bne	r2,zero,803aec <logic+0x385c>
  803abc:	e0bffc17 	ldw	r2,-16(fp)
  803ac0:	10805343 	ldbu	r2,333(r2)
  803ac4:	10803fcc 	andi	r2,r2,255
  803ac8:	1080201c 	xori	r2,r2,128
  803acc:	10bfe004 	addi	r2,r2,-128
  803ad0:	10000826 	beq	r2,zero,803af4 <logic+0x3864>
  803ad4:	e0bffc17 	ldw	r2,-16(fp)
  803ad8:	10806643 	ldbu	r2,409(r2)
  803adc:	10803fcc 	andi	r2,r2,255
  803ae0:	1080201c 	xori	r2,r2,128
  803ae4:	10bfe004 	addi	r2,r2,-128
  803ae8:	10000226 	beq	r2,zero,803af4 <logic+0x3864>
  803aec:	00800044 	movi	r2,1
  803af0:	00000106 	br	803af8 <logic+0x3868>
  803af4:	0005883a 	mov	r2,zero
  803af8:	1007883a 	mov	r3,r2
  803afc:	e0bffc17 	ldw	r2,-16(fp)
  803b00:	10c053c5 	stb	r3,335(r2)
  d->_g166 = !d->_g166;
  803b04:	e0bffc17 	ldw	r2,-16(fp)
  803b08:	108054c3 	ldbu	r2,339(r2)
  803b0c:	10803fcc 	andi	r2,r2,255
  803b10:	1080201c 	xori	r2,r2,128
  803b14:	10bfe004 	addi	r2,r2,-128
  803b18:	1005003a 	cmpeq	r2,r2,zero
  803b1c:	1007883a 	mov	r3,r2
  803b20:	e0bffc17 	ldw	r2,-16(fp)
  803b24:	10c054c5 	stb	r3,339(r2)
  d->_g170 = d->_g167 || d->_g170;
  803b28:	e0bffc17 	ldw	r2,-16(fp)
  803b2c:	10805503 	ldbu	r2,340(r2)
  803b30:	10803fcc 	andi	r2,r2,255
  803b34:	1080201c 	xori	r2,r2,128
  803b38:	10bfe004 	addi	r2,r2,-128
  803b3c:	1000061e 	bne	r2,zero,803b58 <logic+0x38c8>
  803b40:	e0bffc17 	ldw	r2,-16(fp)
  803b44:	108055c3 	ldbu	r2,343(r2)
  803b48:	10803fcc 	andi	r2,r2,255
  803b4c:	1080201c 	xori	r2,r2,128
  803b50:	10bfe004 	addi	r2,r2,-128
  803b54:	10000226 	beq	r2,zero,803b60 <logic+0x38d0>
  803b58:	00800044 	movi	r2,1
  803b5c:	00000106 	br	803b64 <logic+0x38d4>
  803b60:	0005883a 	mov	r2,zero
  803b64:	1007883a 	mov	r3,r2
  803b68:	e0bffc17 	ldw	r2,-16(fp)
  803b6c:	10c055c5 	stb	r3,343(r2)
  d->_g167 = (d->_g159_e1 || d->_g159) && (d->_g166 || d->_g170) && (d->_g159 || d->_g170);
  803b70:	e0bffc17 	ldw	r2,-16(fp)
  803b74:	10806a03 	ldbu	r2,424(r2)
  803b78:	10803fcc 	andi	r2,r2,255
  803b7c:	1080201c 	xori	r2,r2,128
  803b80:	10bfe004 	addi	r2,r2,-128
  803b84:	1000061e 	bne	r2,zero,803ba0 <logic+0x3910>
  803b88:	e0bffc17 	ldw	r2,-16(fp)
  803b8c:	108053c3 	ldbu	r2,335(r2)
  803b90:	10803fcc 	andi	r2,r2,255
  803b94:	1080201c 	xori	r2,r2,128
  803b98:	10bfe004 	addi	r2,r2,-128
  803b9c:	10001a26 	beq	r2,zero,803c08 <logic+0x3978>
  803ba0:	e0bffc17 	ldw	r2,-16(fp)
  803ba4:	108054c3 	ldbu	r2,339(r2)
  803ba8:	10803fcc 	andi	r2,r2,255
  803bac:	1080201c 	xori	r2,r2,128
  803bb0:	10bfe004 	addi	r2,r2,-128
  803bb4:	1000061e 	bne	r2,zero,803bd0 <logic+0x3940>
  803bb8:	e0bffc17 	ldw	r2,-16(fp)
  803bbc:	108055c3 	ldbu	r2,343(r2)
  803bc0:	10803fcc 	andi	r2,r2,255
  803bc4:	1080201c 	xori	r2,r2,128
  803bc8:	10bfe004 	addi	r2,r2,-128
  803bcc:	10000e26 	beq	r2,zero,803c08 <logic+0x3978>
  803bd0:	e0bffc17 	ldw	r2,-16(fp)
  803bd4:	108053c3 	ldbu	r2,335(r2)
  803bd8:	10803fcc 	andi	r2,r2,255
  803bdc:	1080201c 	xori	r2,r2,128
  803be0:	10bfe004 	addi	r2,r2,-128
  803be4:	1000061e 	bne	r2,zero,803c00 <logic+0x3970>
  803be8:	e0bffc17 	ldw	r2,-16(fp)
  803bec:	108055c3 	ldbu	r2,343(r2)
  803bf0:	10803fcc 	andi	r2,r2,255
  803bf4:	1080201c 	xori	r2,r2,128
  803bf8:	10bfe004 	addi	r2,r2,-128
  803bfc:	10000226 	beq	r2,zero,803c08 <logic+0x3978>
  803c00:	00800044 	movi	r2,1
  803c04:	00000106 	br	803c0c <logic+0x397c>
  803c08:	0005883a 	mov	r2,zero
  803c0c:	1007883a 	mov	r3,r2
  803c10:	e0bffc17 	ldw	r2,-16(fp)
  803c14:	10c05505 	stb	r3,340(r2)
  d->_cg171 = d->_Pacemaker_local__Atrig10;
  803c18:	e0bffc17 	ldw	r2,-16(fp)
  803c1c:	10c03683 	ldbu	r3,218(r2)
  803c20:	e0bffc17 	ldw	r2,-16(fp)
  803c24:	10c06745 	stb	r3,413(r2)
  d->_g168 = d->_g167 && !d->_cg171;
  803c28:	e0bffc17 	ldw	r2,-16(fp)
  803c2c:	10805503 	ldbu	r2,340(r2)
  803c30:	10803fcc 	andi	r2,r2,255
  803c34:	1080201c 	xori	r2,r2,128
  803c38:	10bfe004 	addi	r2,r2,-128
  803c3c:	10000826 	beq	r2,zero,803c60 <logic+0x39d0>
  803c40:	e0bffc17 	ldw	r2,-16(fp)
  803c44:	10806743 	ldbu	r2,413(r2)
  803c48:	10803fcc 	andi	r2,r2,255
  803c4c:	1080201c 	xori	r2,r2,128
  803c50:	10bfe004 	addi	r2,r2,-128
  803c54:	1000021e 	bne	r2,zero,803c60 <logic+0x39d0>
  803c58:	00800044 	movi	r2,1
  803c5c:	00000106 	br	803c64 <logic+0x39d4>
  803c60:	0005883a 	mov	r2,zero
  803c64:	1007883a 	mov	r3,r2
  803c68:	e0bffc17 	ldw	r2,-16(fp)
  803c6c:	10c05545 	stb	r3,341(r2)
  if (d->_g168) {
  803c70:	e0bffc17 	ldw	r2,-16(fp)
  803c74:	10805543 	ldbu	r2,341(r2)
  803c78:	10803fcc 	andi	r2,r2,255
  803c7c:	1080201c 	xori	r2,r2,128
  803c80:	10bfe004 	addi	r2,r2,-128
  803c84:	10000726 	beq	r2,zero,803ca4 <logic+0x3a14>
    d->uri_active = 0;
  803c88:	e0bffc17 	ldw	r2,-16(fp)
  803c8c:	10000005 	stb	zero,0(r2)
    d->_taken_transitions[25] += 1;
  803c90:	e0bffc17 	ldw	r2,-16(fp)
  803c94:	10802017 	ldw	r2,128(r2)
  803c98:	10c00044 	addi	r3,r2,1
  803c9c:	e0bffc17 	ldw	r2,-16(fp)
  803ca0:	10c02015 	stw	r3,128(r2)
  }
  d->_g168_e2 = d->_g107_e2 && !d->_cg114;
  803ca4:	e0bffc17 	ldw	r2,-16(fp)
  803ca8:	10806943 	ldbu	r2,421(r2)
  803cac:	10803fcc 	andi	r2,r2,255
  803cb0:	1080201c 	xori	r2,r2,128
  803cb4:	10bfe004 	addi	r2,r2,-128
  803cb8:	10000826 	beq	r2,zero,803cdc <logic+0x3a4c>
  803cbc:	e0bffc17 	ldw	r2,-16(fp)
  803cc0:	10806203 	ldbu	r2,392(r2)
  803cc4:	10803fcc 	andi	r2,r2,255
  803cc8:	1080201c 	xori	r2,r2,128
  803ccc:	10bfe004 	addi	r2,r2,-128
  803cd0:	1000021e 	bne	r2,zero,803cdc <logic+0x3a4c>
  803cd4:	00800044 	movi	r2,1
  803cd8:	00000106 	br	803ce0 <logic+0x3a50>
  803cdc:	0005883a 	mov	r2,zero
  803ce0:	1007883a 	mov	r3,r2
  803ce4:	e0bffc17 	ldw	r2,-16(fp)
  803ce8:	10c06a45 	stb	r3,425(r2)
  d->_cg116 = d->uri_active == 0;
  803cec:	e0bffc17 	ldw	r2,-16(fp)
  803cf0:	10800003 	ldbu	r2,0(r2)
  803cf4:	10803fcc 	andi	r2,r2,255
  803cf8:	1080201c 	xori	r2,r2,128
  803cfc:	10bfe004 	addi	r2,r2,-128
  803d00:	1005003a 	cmpeq	r2,r2,zero
  803d04:	1007883a 	mov	r3,r2
  803d08:	e0bffc17 	ldw	r2,-16(fp)
  803d0c:	10c061c5 	stb	r3,391(r2)
  d->_g159_e1 = d->_g168_e2 && d->_cg116;
  803d10:	e0bffc17 	ldw	r2,-16(fp)
  803d14:	10806a43 	ldbu	r2,425(r2)
  803d18:	10803fcc 	andi	r2,r2,255
  803d1c:	1080201c 	xori	r2,r2,128
  803d20:	10bfe004 	addi	r2,r2,-128
  803d24:	10000826 	beq	r2,zero,803d48 <logic+0x3ab8>
  803d28:	e0bffc17 	ldw	r2,-16(fp)
  803d2c:	108061c3 	ldbu	r2,391(r2)
  803d30:	10803fcc 	andi	r2,r2,255
  803d34:	1080201c 	xori	r2,r2,128
  803d38:	10bfe004 	addi	r2,r2,-128
  803d3c:	10000226 	beq	r2,zero,803d48 <logic+0x3ab8>
  803d40:	00800044 	movi	r2,1
  803d44:	00000106 	br	803d4c <logic+0x3abc>
  803d48:	0005883a 	mov	r2,zero
  803d4c:	1007883a 	mov	r3,r2
  803d50:	e0bffc17 	ldw	r2,-16(fp)
  803d54:	10c06a05 	stb	r3,424(r2)
  if (d->_g159_e1) {
  803d58:	e0bffc17 	ldw	r2,-16(fp)
  803d5c:	10806a03 	ldbu	r2,424(r2)
  803d60:	10803fcc 	andi	r2,r2,255
  803d64:	1080201c 	xori	r2,r2,128
  803d68:	10bfe004 	addi	r2,r2,-128
  803d6c:	10000b26 	beq	r2,zero,803d9c <logic+0x3b0c>
    d->VP |= 1;
  803d70:	e0bffc17 	ldw	r2,-16(fp)
  803d74:	108031c3 	ldbu	r2,199(r2)
  803d78:	10800054 	ori	r2,r2,1
  803d7c:	1007883a 	mov	r3,r2
  803d80:	e0bffc17 	ldw	r2,-16(fp)
  803d84:	10c031c5 	stb	r3,199(r2)
    d->_taken_transitions[18] += 1;
  803d88:	e0bffc17 	ldw	r2,-16(fp)
  803d8c:	10801917 	ldw	r2,100(r2)
  803d90:	10c00044 	addi	r3,r2,1
  803d94:	e0bffc17 	ldw	r2,-16(fp)
  803d98:	10c01915 	stw	r3,100(r2)
  }
  d->_g159 = d->_GO || d->_g106 || d->_g97 || d->_g159_e1 || d->_g87 && !d->_cg92;
  803d9c:	e0bffc17 	ldw	r2,-16(fp)
  803da0:	10805803 	ldbu	r2,352(r2)
  803da4:	10803fcc 	andi	r2,r2,255
  803da8:	1080201c 	xori	r2,r2,128
  803dac:	10bfe004 	addi	r2,r2,-128
  803db0:	10001e1e 	bne	r2,zero,803e2c <logic+0x3b9c>
  803db4:	e0bffc17 	ldw	r2,-16(fp)
  803db8:	10804a03 	ldbu	r2,296(r2)
  803dbc:	10803fcc 	andi	r2,r2,255
  803dc0:	1080201c 	xori	r2,r2,128
  803dc4:	10bfe004 	addi	r2,r2,-128
  803dc8:	1000181e 	bne	r2,zero,803e2c <logic+0x3b9c>
  803dcc:	e0bffc17 	ldw	r2,-16(fp)
  803dd0:	10804843 	ldbu	r2,289(r2)
  803dd4:	10803fcc 	andi	r2,r2,255
  803dd8:	1080201c 	xori	r2,r2,128
  803ddc:	10bfe004 	addi	r2,r2,-128
  803de0:	1000121e 	bne	r2,zero,803e2c <logic+0x3b9c>
  803de4:	e0bffc17 	ldw	r2,-16(fp)
  803de8:	10806a03 	ldbu	r2,424(r2)
  803dec:	10803fcc 	andi	r2,r2,255
  803df0:	1080201c 	xori	r2,r2,128
  803df4:	10bfe004 	addi	r2,r2,-128
  803df8:	10000c1e 	bne	r2,zero,803e2c <logic+0x3b9c>
  803dfc:	e0bffc17 	ldw	r2,-16(fp)
  803e00:	108046c3 	ldbu	r2,283(r2)
  803e04:	10803fcc 	andi	r2,r2,255
  803e08:	1080201c 	xori	r2,r2,128
  803e0c:	10bfe004 	addi	r2,r2,-128
  803e10:	10000826 	beq	r2,zero,803e34 <logic+0x3ba4>
  803e14:	e0bffc17 	ldw	r2,-16(fp)
  803e18:	10806003 	ldbu	r2,384(r2)
  803e1c:	10803fcc 	andi	r2,r2,255
  803e20:	1080201c 	xori	r2,r2,128
  803e24:	10bfe004 	addi	r2,r2,-128
  803e28:	1000021e 	bne	r2,zero,803e34 <logic+0x3ba4>
  803e2c:	00800044 	movi	r2,1
  803e30:	00000106 	br	803e38 <logic+0x3ba8>
  803e34:	0005883a 	mov	r2,zero
  803e38:	1007883a 	mov	r3,r2
  803e3c:	e0bffc17 	ldw	r2,-16(fp)
  803e40:	10c053c5 	stb	r3,335(r2)
  d->_g114 = d->_g109 && !d->_cg110;
  803e44:	e0bffc17 	ldw	r2,-16(fp)
  803e48:	10804ac3 	ldbu	r2,299(r2)
  803e4c:	10803fcc 	andi	r2,r2,255
  803e50:	1080201c 	xori	r2,r2,128
  803e54:	10bfe004 	addi	r2,r2,-128
  803e58:	10000826 	beq	r2,zero,803e7c <logic+0x3bec>
  803e5c:	e0bffc17 	ldw	r2,-16(fp)
  803e60:	10806183 	ldbu	r2,390(r2)
  803e64:	10803fcc 	andi	r2,r2,255
  803e68:	1080201c 	xori	r2,r2,128
  803e6c:	10bfe004 	addi	r2,r2,-128
  803e70:	1000021e 	bne	r2,zero,803e7c <logic+0x3bec>
  803e74:	00800044 	movi	r2,1
  803e78:	00000106 	br	803e80 <logic+0x3bf0>
  803e7c:	0005883a 	mov	r2,zero
  803e80:	1007883a 	mov	r3,r2
  803e84:	e0bffc17 	ldw	r2,-16(fp)
  803e88:	10c04bc5 	stb	r3,303(r2)
  if (d->_g114) {
  803e8c:	e0bffc17 	ldw	r2,-16(fp)
  803e90:	10804bc3 	ldbu	r2,303(r2)
  803e94:	10803fcc 	andi	r2,r2,255
  803e98:	1080201c 	xori	r2,r2,128
  803e9c:	10bfe004 	addi	r2,r2,-128
  803ea0:	10000526 	beq	r2,zero,803eb8 <logic+0x3c28>
    d->_taken_transitions[16] += 1;
  803ea4:	e0bffc17 	ldw	r2,-16(fp)
  803ea8:	10801717 	ldw	r2,92(r2)
  803eac:	10c00044 	addi	r3,r2,1
  803eb0:	e0bffc17 	ldw	r2,-16(fp)
  803eb4:	10c01715 	stw	r3,92(r2)
  }
  d->_g111 = d->_g114 || d->_g168_e2 && !d->_cg116;
  803eb8:	e0bffc17 	ldw	r2,-16(fp)
  803ebc:	10804bc3 	ldbu	r2,303(r2)
  803ec0:	10803fcc 	andi	r2,r2,255
  803ec4:	1080201c 	xori	r2,r2,128
  803ec8:	10bfe004 	addi	r2,r2,-128
  803ecc:	10000c1e 	bne	r2,zero,803f00 <logic+0x3c70>
  803ed0:	e0bffc17 	ldw	r2,-16(fp)
  803ed4:	10806a43 	ldbu	r2,425(r2)
  803ed8:	10803fcc 	andi	r2,r2,255
  803edc:	1080201c 	xori	r2,r2,128
  803ee0:	10bfe004 	addi	r2,r2,-128
  803ee4:	10000826 	beq	r2,zero,803f08 <logic+0x3c78>
  803ee8:	e0bffc17 	ldw	r2,-16(fp)
  803eec:	108061c3 	ldbu	r2,391(r2)
  803ef0:	10803fcc 	andi	r2,r2,255
  803ef4:	1080201c 	xori	r2,r2,128
  803ef8:	10bfe004 	addi	r2,r2,-128
  803efc:	1000021e 	bne	r2,zero,803f08 <logic+0x3c78>
  803f00:	00800044 	movi	r2,1
  803f04:	00000106 	br	803f0c <logic+0x3c7c>
  803f08:	0005883a 	mov	r2,zero
  803f0c:	1007883a 	mov	r3,r2
  803f10:	e0bffc17 	ldw	r2,-16(fp)
  803f14:	10c04b45 	stb	r3,301(r2)
  d->_g92 = d->_pg160;
  803f18:	e0bffc17 	ldw	r2,-16(fp)
  803f1c:	10c07203 	ldbu	r3,456(r2)
  803f20:	e0bffc17 	ldw	r2,-16(fp)
  803f24:	10c04745 	stb	r3,285(r2)
  if (d->_g92) {
  803f28:	e0bffc17 	ldw	r2,-16(fp)
  803f2c:	10804743 	ldbu	r2,285(r2)
  803f30:	10803fcc 	andi	r2,r2,255
  803f34:	1080201c 	xori	r2,r2,128
  803f38:	10bfe004 	addi	r2,r2,-128
  803f3c:	10001226 	beq	r2,zero,803f88 <logic+0x3cf8>
    d->_region4_LRI_t += d->deltaT;
  803f40:	e13ffc17 	ldw	r4,-16(fp)
  803f44:	20802917 	ldw	r2,164(r4)
  803f48:	20c02a17 	ldw	r3,168(r4)
  803f4c:	e1bffc17 	ldw	r6,-16(fp)
  803f50:	31002d17 	ldw	r4,180(r6)
  803f54:	31402e17 	ldw	r5,184(r6)
  803f58:	200d883a 	mov	r6,r4
  803f5c:	280f883a 	mov	r7,r5
  803f60:	1009883a 	mov	r4,r2
  803f64:	180b883a 	mov	r5,r3
  803f68:	0806aa80 	call	806aa8 <__adddf3>
  803f6c:	1009883a 	mov	r4,r2
  803f70:	180b883a 	mov	r5,r3
  803f74:	2005883a 	mov	r2,r4
  803f78:	2807883a 	mov	r3,r5
  803f7c:	e13ffc17 	ldw	r4,-16(fp)
  803f80:	20802915 	stw	r2,164(r4)
  803f84:	20c02a15 	stw	r3,168(r4)
  }
  d->_g117 = d->_pg126;
  803f88:	e0bffc17 	ldw	r2,-16(fp)
  803f8c:	10c07243 	ldbu	r3,457(r2)
  803f90:	e0bffc17 	ldw	r2,-16(fp)
  803f94:	10c04c85 	stb	r3,306(r2)
  d->_g115 = d->_pg140;
  803f98:	e0bffc17 	ldw	r2,-16(fp)
  803f9c:	10c07283 	ldbu	r3,458(r2)
  803fa0:	e0bffc17 	ldw	r2,-16(fp)
  803fa4:	10c04c05 	stb	r3,304(r2)
  d->_g110 = !(d->_g117 || d->_g115);
  803fa8:	e0bffc17 	ldw	r2,-16(fp)
  803fac:	10804c83 	ldbu	r2,306(r2)
  803fb0:	10803fcc 	andi	r2,r2,255
  803fb4:	1080201c 	xori	r2,r2,128
  803fb8:	10bfe004 	addi	r2,r2,-128
  803fbc:	1000081e 	bne	r2,zero,803fe0 <logic+0x3d50>
  803fc0:	e0bffc17 	ldw	r2,-16(fp)
  803fc4:	10804c03 	ldbu	r2,304(r2)
  803fc8:	10803fcc 	andi	r2,r2,255
  803fcc:	1080201c 	xori	r2,r2,128
  803fd0:	10bfe004 	addi	r2,r2,-128
  803fd4:	1000021e 	bne	r2,zero,803fe0 <logic+0x3d50>
  803fd8:	00800044 	movi	r2,1
  803fdc:	00000106 	br	803fe4 <logic+0x3d54>
  803fe0:	0005883a 	mov	r2,zero
  803fe4:	1007883a 	mov	r3,r2
  803fe8:	e0bffc17 	ldw	r2,-16(fp)
  803fec:	10c04b05 	stb	r3,300(r2)
  d->_g112 = d->_pg131;
  803ff0:	e0bffc17 	ldw	r2,-16(fp)
  803ff4:	10c072c3 	ldbu	r3,459(r2)
  803ff8:	e0bffc17 	ldw	r2,-16(fp)
  803ffc:	10c04b85 	stb	r3,302(r2)
  d->_cg134 = d->V_EVT;
  804000:	e0bffc17 	ldw	r2,-16(fp)
  804004:	10c03243 	ldbu	r3,201(r2)
  804008:	e0bffc17 	ldw	r2,-16(fp)
  80400c:	10c06405 	stb	r3,400(r2)
  d->_g116 = d->_g112 && d->_cg134;
  804010:	e0bffc17 	ldw	r2,-16(fp)
  804014:	10804b83 	ldbu	r2,302(r2)
  804018:	10803fcc 	andi	r2,r2,255
  80401c:	1080201c 	xori	r2,r2,128
  804020:	10bfe004 	addi	r2,r2,-128
  804024:	10000826 	beq	r2,zero,804048 <logic+0x3db8>
  804028:	e0bffc17 	ldw	r2,-16(fp)
  80402c:	10806403 	ldbu	r2,400(r2)
  804030:	10803fcc 	andi	r2,r2,255
  804034:	1080201c 	xori	r2,r2,128
  804038:	10bfe004 	addi	r2,r2,-128
  80403c:	10000226 	beq	r2,zero,804048 <logic+0x3db8>
  804040:	00800044 	movi	r2,1
  804044:	00000106 	br	80404c <logic+0x3dbc>
  804048:	0005883a 	mov	r2,zero
  80404c:	1007883a 	mov	r3,r2
  804050:	e0bffc17 	ldw	r2,-16(fp)
  804054:	10c04c45 	stb	r3,305(r2)
  if (d->_g116) {
  804058:	e0bffc17 	ldw	r2,-16(fp)
  80405c:	10804c43 	ldbu	r2,305(r2)
  804060:	10803fcc 	andi	r2,r2,255
  804064:	1080201c 	xori	r2,r2,128
  804068:	10bfe004 	addi	r2,r2,-128
  80406c:	10000326 	beq	r2,zero,80407c <logic+0x3dec>
    d->_Pacemaker_local__Atrig8 = 1;
  804070:	e0bffc17 	ldw	r2,-16(fp)
  804074:	00c00044 	movi	r3,1
  804078:	10c03605 	stb	r3,216(r2)
  }
  d->_g137 = d->_g112 && !d->_cg134;
  80407c:	e0bffc17 	ldw	r2,-16(fp)
  804080:	10804b83 	ldbu	r2,302(r2)
  804084:	10803fcc 	andi	r2,r2,255
  804088:	1080201c 	xori	r2,r2,128
  80408c:	10bfe004 	addi	r2,r2,-128
  804090:	10000826 	beq	r2,zero,8040b4 <logic+0x3e24>
  804094:	e0bffc17 	ldw	r2,-16(fp)
  804098:	10806403 	ldbu	r2,400(r2)
  80409c:	10803fcc 	andi	r2,r2,255
  8040a0:	1080201c 	xori	r2,r2,128
  8040a4:	10bfe004 	addi	r2,r2,-128
  8040a8:	1000021e 	bne	r2,zero,8040b4 <logic+0x3e24>
  8040ac:	00800044 	movi	r2,1
  8040b0:	00000106 	br	8040b8 <logic+0x3e28>
  8040b4:	0005883a 	mov	r2,zero
  8040b8:	1007883a 	mov	r3,r2
  8040bc:	e0bffc17 	ldw	r2,-16(fp)
  8040c0:	10c04fc5 	stb	r3,319(r2)
  d->_cg137 = d->_region4_LRI_t >= d->T_LRI;
  8040c4:	e0bffc17 	ldw	r2,-16(fp)
  8040c8:	14002917 	ldw	r16,164(r2)
  8040cc:	14402a17 	ldw	r17,168(r2)
  8040d0:	e0bffc17 	ldw	r2,-16(fp)
  8040d4:	10800517 	ldw	r2,20(r2)
  8040d8:	1009883a 	mov	r4,r2
  8040dc:	0808e200 	call	808e20 <__floatsidf>
  8040e0:	1009883a 	mov	r4,r2
  8040e4:	180b883a 	mov	r5,r3
  8040e8:	04800044 	movi	r18,1
  8040ec:	200d883a 	mov	r6,r4
  8040f0:	280f883a 	mov	r7,r5
  8040f4:	8009883a 	mov	r4,r16
  8040f8:	880b883a 	mov	r5,r17
  8040fc:	0807c3c0 	call	807c3c <__gedf2>
  804100:	1000010e 	bge	r2,zero,804108 <logic+0x3e78>
  804104:	0025883a 	mov	r18,zero
  804108:	9007883a 	mov	r3,r18
  80410c:	e0bffc17 	ldw	r2,-16(fp)
  804110:	10c063c5 	stb	r3,399(r2)
  d->_g138 = d->_g137 && d->_cg137;
  804114:	e0bffc17 	ldw	r2,-16(fp)
  804118:	10804fc3 	ldbu	r2,319(r2)
  80411c:	10803fcc 	andi	r2,r2,255
  804120:	1080201c 	xori	r2,r2,128
  804124:	10bfe004 	addi	r2,r2,-128
  804128:	10000826 	beq	r2,zero,80414c <logic+0x3ebc>
  80412c:	e0bffc17 	ldw	r2,-16(fp)
  804130:	108063c3 	ldbu	r2,399(r2)
  804134:	10803fcc 	andi	r2,r2,255
  804138:	1080201c 	xori	r2,r2,128
  80413c:	10bfe004 	addi	r2,r2,-128
  804140:	10000226 	beq	r2,zero,80414c <logic+0x3ebc>
  804144:	00800044 	movi	r2,1
  804148:	00000106 	br	804150 <logic+0x3ec0>
  80414c:	0005883a 	mov	r2,zero
  804150:	1007883a 	mov	r3,r2
  804154:	e0bffc17 	ldw	r2,-16(fp)
  804158:	10c05005 	stb	r3,320(r2)
  if (d->_g138) {
  80415c:	e0bffc17 	ldw	r2,-16(fp)
  804160:	10805003 	ldbu	r2,320(r2)
  804164:	10803fcc 	andi	r2,r2,255
  804168:	1080201c 	xori	r2,r2,128
  80416c:	10bfe004 	addi	r2,r2,-128
  804170:	10000326 	beq	r2,zero,804180 <logic+0x3ef0>
    d->_Pacemaker_local__Atrig9 = 1;
  804174:	e0bffc17 	ldw	r2,-16(fp)
  804178:	00c00044 	movi	r3,1
  80417c:	10c03645 	stb	r3,217(r2)
  }
  d->_g130 = d->_g115 || d->_g117;
  804180:	e0bffc17 	ldw	r2,-16(fp)
  804184:	10804c03 	ldbu	r2,304(r2)
  804188:	10803fcc 	andi	r2,r2,255
  80418c:	1080201c 	xori	r2,r2,128
  804190:	10bfe004 	addi	r2,r2,-128
  804194:	1000061e 	bne	r2,zero,8041b0 <logic+0x3f20>
  804198:	e0bffc17 	ldw	r2,-16(fp)
  80419c:	10804c83 	ldbu	r2,306(r2)
  8041a0:	10803fcc 	andi	r2,r2,255
  8041a4:	1080201c 	xori	r2,r2,128
  8041a8:	10bfe004 	addi	r2,r2,-128
  8041ac:	10000226 	beq	r2,zero,8041b8 <logic+0x3f28>
  8041b0:	00800044 	movi	r2,1
  8041b4:	00000106 	br	8041bc <logic+0x3f2c>
  8041b8:	0005883a 	mov	r2,zero
  8041bc:	1007883a 	mov	r3,r2
  8041c0:	e0bffc17 	ldw	r2,-16(fp)
  8041c4:	10c04e85 	stb	r3,314(r2)
  d->_cg125 = d->_region4_LRI_t < d->T_LRI;
  8041c8:	e0bffc17 	ldw	r2,-16(fp)
  8041cc:	14002917 	ldw	r16,164(r2)
  8041d0:	14402a17 	ldw	r17,168(r2)
  8041d4:	e0bffc17 	ldw	r2,-16(fp)
  8041d8:	10800517 	ldw	r2,20(r2)
  8041dc:	1009883a 	mov	r4,r2
  8041e0:	0808e200 	call	808e20 <__floatsidf>
  8041e4:	1009883a 	mov	r4,r2
  8041e8:	180b883a 	mov	r5,r3
  8041ec:	04800044 	movi	r18,1
  8041f0:	200d883a 	mov	r6,r4
  8041f4:	280f883a 	mov	r7,r5
  8041f8:	8009883a 	mov	r4,r16
  8041fc:	880b883a 	mov	r5,r17
  804200:	0807d180 	call	807d18 <__ledf2>
  804204:	10000116 	blt	r2,zero,80420c <logic+0x3f7c>
  804208:	0025883a 	mov	r18,zero
  80420c:	9007883a 	mov	r3,r18
  804210:	e0bffc17 	ldw	r2,-16(fp)
  804214:	10c06305 	stb	r3,396(r2)
  d->_g124 = d->_g130 && d->_cg125;
  804218:	e0bffc17 	ldw	r2,-16(fp)
  80421c:	10804e83 	ldbu	r2,314(r2)
  804220:	10803fcc 	andi	r2,r2,255
  804224:	1080201c 	xori	r2,r2,128
  804228:	10bfe004 	addi	r2,r2,-128
  80422c:	10000826 	beq	r2,zero,804250 <logic+0x3fc0>
  804230:	e0bffc17 	ldw	r2,-16(fp)
  804234:	10806303 	ldbu	r2,396(r2)
  804238:	10803fcc 	andi	r2,r2,255
  80423c:	1080201c 	xori	r2,r2,128
  804240:	10bfe004 	addi	r2,r2,-128
  804244:	10000226 	beq	r2,zero,804250 <logic+0x3fc0>
  804248:	00800044 	movi	r2,1
  80424c:	00000106 	br	804254 <logic+0x3fc4>
  804250:	0005883a 	mov	r2,zero
  804254:	1007883a 	mov	r3,r2
  804258:	e0bffc17 	ldw	r2,-16(fp)
  80425c:	10c04d45 	stb	r3,309(r2)
  if (d->_g124) {
  804260:	e0bffc17 	ldw	r2,-16(fp)
  804264:	10804d43 	ldbu	r2,309(r2)
  804268:	10803fcc 	andi	r2,r2,255
  80426c:	1080201c 	xori	r2,r2,128
  804270:	10bfe004 	addi	r2,r2,-128
  804274:	10003426 	beq	r2,zero,804348 <logic+0x40b8>
    d->sleepT = (d->sleepT < (d->T_LRI - d->_region4_LRI_t)) ? d->sleepT : (d->T_LRI - d->_region4_LRI_t);
  804278:	e0bffc17 	ldw	r2,-16(fp)
  80427c:	14002f17 	ldw	r16,188(r2)
  804280:	14403017 	ldw	r17,192(r2)
  804284:	e0bffc17 	ldw	r2,-16(fp)
  804288:	10800517 	ldw	r2,20(r2)
  80428c:	1009883a 	mov	r4,r2
  804290:	0808e200 	call	808e20 <__floatsidf>
  804294:	1011883a 	mov	r8,r2
  804298:	1813883a 	mov	r9,r3
  80429c:	e13ffc17 	ldw	r4,-16(fp)
  8042a0:	20802917 	ldw	r2,164(r4)
  8042a4:	20c02a17 	ldw	r3,168(r4)
  8042a8:	100d883a 	mov	r6,r2
  8042ac:	180f883a 	mov	r7,r3
  8042b0:	4009883a 	mov	r4,r8
  8042b4:	480b883a 	mov	r5,r9
  8042b8:	08085240 	call	808524 <__subdf3>
  8042bc:	1009883a 	mov	r4,r2
  8042c0:	180b883a 	mov	r5,r3
  8042c4:	2005883a 	mov	r2,r4
  8042c8:	2807883a 	mov	r3,r5
  8042cc:	100d883a 	mov	r6,r2
  8042d0:	180f883a 	mov	r7,r3
  8042d4:	8009883a 	mov	r4,r16
  8042d8:	880b883a 	mov	r5,r17
  8042dc:	0807d180 	call	807d18 <__ledf2>
  8042e0:	1000040e 	bge	r2,zero,8042f4 <logic+0x4064>
  8042e4:	e13ffc17 	ldw	r4,-16(fp)
  8042e8:	20802f17 	ldw	r2,188(r4)
  8042ec:	20c03017 	ldw	r3,192(r4)
  8042f0:	00001206 	br	80433c <logic+0x40ac>
  8042f4:	e0bffc17 	ldw	r2,-16(fp)
  8042f8:	10800517 	ldw	r2,20(r2)
  8042fc:	1009883a 	mov	r4,r2
  804300:	0808e200 	call	808e20 <__floatsidf>
  804304:	1011883a 	mov	r8,r2
  804308:	1813883a 	mov	r9,r3
  80430c:	e13ffc17 	ldw	r4,-16(fp)
  804310:	20802917 	ldw	r2,164(r4)
  804314:	20c02a17 	ldw	r3,168(r4)
  804318:	100d883a 	mov	r6,r2
  80431c:	180f883a 	mov	r7,r3
  804320:	4009883a 	mov	r4,r8
  804324:	480b883a 	mov	r5,r9
  804328:	08085240 	call	808524 <__subdf3>
  80432c:	1009883a 	mov	r4,r2
  804330:	180b883a 	mov	r5,r3
  804334:	2005883a 	mov	r2,r4
  804338:	2807883a 	mov	r3,r5
  80433c:	e13ffc17 	ldw	r4,-16(fp)
  804340:	20802f15 	stw	r2,188(r4)
  804344:	20c03015 	stw	r3,192(r4)
  }
  d->_cg126 = d->_Pacemaker_local__Atrig8 || d->_Pacemaker_local__Atrig9;
  804348:	e0bffc17 	ldw	r2,-16(fp)
  80434c:	10803603 	ldbu	r2,216(r2)
  804350:	10803fcc 	andi	r2,r2,255
  804354:	1080201c 	xori	r2,r2,128
  804358:	10bfe004 	addi	r2,r2,-128
  80435c:	1000061e 	bne	r2,zero,804378 <logic+0x40e8>
  804360:	e0bffc17 	ldw	r2,-16(fp)
  804364:	10803643 	ldbu	r2,217(r2)
  804368:	10803fcc 	andi	r2,r2,255
  80436c:	1080201c 	xori	r2,r2,128
  804370:	10bfe004 	addi	r2,r2,-128
  804374:	10000226 	beq	r2,zero,804380 <logic+0x40f0>
  804378:	00800044 	movi	r2,1
  80437c:	00000106 	br	804384 <logic+0x40f4>
  804380:	0005883a 	mov	r2,zero
  804384:	1007883a 	mov	r3,r2
  804388:	e0bffc17 	ldw	r2,-16(fp)
  80438c:	10c062c5 	stb	r3,395(r2)
  d->_g125 = d->_g130 && !d->_cg125;
  804390:	e0bffc17 	ldw	r2,-16(fp)
  804394:	10804e83 	ldbu	r2,314(r2)
  804398:	10803fcc 	andi	r2,r2,255
  80439c:	1080201c 	xori	r2,r2,128
  8043a0:	10bfe004 	addi	r2,r2,-128
  8043a4:	10000826 	beq	r2,zero,8043c8 <logic+0x4138>
  8043a8:	e0bffc17 	ldw	r2,-16(fp)
  8043ac:	10806303 	ldbu	r2,396(r2)
  8043b0:	10803fcc 	andi	r2,r2,255
  8043b4:	1080201c 	xori	r2,r2,128
  8043b8:	10bfe004 	addi	r2,r2,-128
  8043bc:	1000021e 	bne	r2,zero,8043c8 <logic+0x4138>
  8043c0:	00800044 	movi	r2,1
  8043c4:	00000106 	br	8043cc <logic+0x413c>
  8043c8:	0005883a 	mov	r2,zero
  8043cc:	1007883a 	mov	r3,r2
  8043d0:	e0bffc17 	ldw	r2,-16(fp)
  8043d4:	10c04d85 	stb	r3,310(r2)
  d->_cg128 = d->_Pacemaker_local__Atrig8 || d->_Pacemaker_local__Atrig9;
  8043d8:	e0bffc17 	ldw	r2,-16(fp)
  8043dc:	10803603 	ldbu	r2,216(r2)
  8043e0:	10803fcc 	andi	r2,r2,255
  8043e4:	1080201c 	xori	r2,r2,128
  8043e8:	10bfe004 	addi	r2,r2,-128
  8043ec:	1000061e 	bne	r2,zero,804408 <logic+0x4178>
  8043f0:	e0bffc17 	ldw	r2,-16(fp)
  8043f4:	10803643 	ldbu	r2,217(r2)
  8043f8:	10803fcc 	andi	r2,r2,255
  8043fc:	1080201c 	xori	r2,r2,128
  804400:	10bfe004 	addi	r2,r2,-128
  804404:	10000226 	beq	r2,zero,804410 <logic+0x4180>
  804408:	00800044 	movi	r2,1
  80440c:	00000106 	br	804414 <logic+0x4184>
  804410:	0005883a 	mov	r2,zero
  804414:	1007883a 	mov	r3,r2
  804418:	e0bffc17 	ldw	r2,-16(fp)
  80441c:	10c06345 	stb	r3,397(r2)
  d->_g127 = d->_g124 && d->_cg126 || d->_g125 && d->_cg128;
  804420:	e0bffc17 	ldw	r2,-16(fp)
  804424:	10804d43 	ldbu	r2,309(r2)
  804428:	10803fcc 	andi	r2,r2,255
  80442c:	1080201c 	xori	r2,r2,128
  804430:	10bfe004 	addi	r2,r2,-128
  804434:	10000626 	beq	r2,zero,804450 <logic+0x41c0>
  804438:	e0bffc17 	ldw	r2,-16(fp)
  80443c:	108062c3 	ldbu	r2,395(r2)
  804440:	10803fcc 	andi	r2,r2,255
  804444:	1080201c 	xori	r2,r2,128
  804448:	10bfe004 	addi	r2,r2,-128
  80444c:	10000c1e 	bne	r2,zero,804480 <logic+0x41f0>
  804450:	e0bffc17 	ldw	r2,-16(fp)
  804454:	10804d83 	ldbu	r2,310(r2)
  804458:	10803fcc 	andi	r2,r2,255
  80445c:	1080201c 	xori	r2,r2,128
  804460:	10bfe004 	addi	r2,r2,-128
  804464:	10000826 	beq	r2,zero,804488 <logic+0x41f8>
  804468:	e0bffc17 	ldw	r2,-16(fp)
  80446c:	10806343 	ldbu	r2,397(r2)
  804470:	10803fcc 	andi	r2,r2,255
  804474:	1080201c 	xori	r2,r2,128
  804478:	10bfe004 	addi	r2,r2,-128
  80447c:	10000226 	beq	r2,zero,804488 <logic+0x41f8>
  804480:	00800044 	movi	r2,1
  804484:	00000106 	br	80448c <logic+0x41fc>
  804488:	0005883a 	mov	r2,zero
  80448c:	1007883a 	mov	r3,r2
  804490:	e0bffc17 	ldw	r2,-16(fp)
  804494:	10c04e05 	stb	r3,312(r2)
  d->_g134 = !d->_g112;
  804498:	e0bffc17 	ldw	r2,-16(fp)
  80449c:	10804b83 	ldbu	r2,302(r2)
  8044a0:	10803fcc 	andi	r2,r2,255
  8044a4:	1080201c 	xori	r2,r2,128
  8044a8:	10bfe004 	addi	r2,r2,-128
  8044ac:	1005003a 	cmpeq	r2,r2,zero
  8044b0:	1007883a 	mov	r3,r2
  8044b4:	e0bffc17 	ldw	r2,-16(fp)
  8044b8:	10c04f05 	stb	r3,316(r2)
  d->_g138 = d->_g116 || d->_g138;
  8044bc:	e0bffc17 	ldw	r2,-16(fp)
  8044c0:	10804c43 	ldbu	r2,305(r2)
  8044c4:	10803fcc 	andi	r2,r2,255
  8044c8:	1080201c 	xori	r2,r2,128
  8044cc:	10bfe004 	addi	r2,r2,-128
  8044d0:	1000061e 	bne	r2,zero,8044ec <logic+0x425c>
  8044d4:	e0bffc17 	ldw	r2,-16(fp)
  8044d8:	10805003 	ldbu	r2,320(r2)
  8044dc:	10803fcc 	andi	r2,r2,255
  8044e0:	1080201c 	xori	r2,r2,128
  8044e4:	10bfe004 	addi	r2,r2,-128
  8044e8:	10000226 	beq	r2,zero,8044f4 <logic+0x4264>
  8044ec:	00800044 	movi	r2,1
  8044f0:	00000106 	br	8044f8 <logic+0x4268>
  8044f4:	0005883a 	mov	r2,zero
  8044f8:	1007883a 	mov	r3,r2
  8044fc:	e0bffc17 	ldw	r2,-16(fp)
  804500:	10c05005 	stb	r3,320(r2)
  d->_g135 = (d->_g110 || d->_g127) && (d->_g134 || d->_g138) && (d->_g127 || d->_g138);
  804504:	e0bffc17 	ldw	r2,-16(fp)
  804508:	10804b03 	ldbu	r2,300(r2)
  80450c:	10803fcc 	andi	r2,r2,255
  804510:	1080201c 	xori	r2,r2,128
  804514:	10bfe004 	addi	r2,r2,-128
  804518:	1000061e 	bne	r2,zero,804534 <logic+0x42a4>
  80451c:	e0bffc17 	ldw	r2,-16(fp)
  804520:	10804e03 	ldbu	r2,312(r2)
  804524:	10803fcc 	andi	r2,r2,255
  804528:	1080201c 	xori	r2,r2,128
  80452c:	10bfe004 	addi	r2,r2,-128
  804530:	10001a26 	beq	r2,zero,80459c <logic+0x430c>
  804534:	e0bffc17 	ldw	r2,-16(fp)
  804538:	10804f03 	ldbu	r2,316(r2)
  80453c:	10803fcc 	andi	r2,r2,255
  804540:	1080201c 	xori	r2,r2,128
  804544:	10bfe004 	addi	r2,r2,-128
  804548:	1000061e 	bne	r2,zero,804564 <logic+0x42d4>
  80454c:	e0bffc17 	ldw	r2,-16(fp)
  804550:	10805003 	ldbu	r2,320(r2)
  804554:	10803fcc 	andi	r2,r2,255
  804558:	1080201c 	xori	r2,r2,128
  80455c:	10bfe004 	addi	r2,r2,-128
  804560:	10000e26 	beq	r2,zero,80459c <logic+0x430c>
  804564:	e0bffc17 	ldw	r2,-16(fp)
  804568:	10804e03 	ldbu	r2,312(r2)
  80456c:	10803fcc 	andi	r2,r2,255
  804570:	1080201c 	xori	r2,r2,128
  804574:	10bfe004 	addi	r2,r2,-128
  804578:	1000061e 	bne	r2,zero,804594 <logic+0x4304>
  80457c:	e0bffc17 	ldw	r2,-16(fp)
  804580:	10805003 	ldbu	r2,320(r2)
  804584:	10803fcc 	andi	r2,r2,255
  804588:	1080201c 	xori	r2,r2,128
  80458c:	10bfe004 	addi	r2,r2,-128
  804590:	10000226 	beq	r2,zero,80459c <logic+0x430c>
  804594:	00800044 	movi	r2,1
  804598:	00000106 	br	8045a0 <logic+0x4310>
  80459c:	0005883a 	mov	r2,zero
  8045a0:	1007883a 	mov	r3,r2
  8045a4:	e0bffc17 	ldw	r2,-16(fp)
  8045a8:	10c04f45 	stb	r3,317(r2)
  d->_cg139 = d->_Pacemaker_local__Atrig8;
  8045ac:	e0bffc17 	ldw	r2,-16(fp)
  8045b0:	10c03603 	ldbu	r3,216(r2)
  8045b4:	e0bffc17 	ldw	r2,-16(fp)
  8045b8:	10c06445 	stb	r3,401(r2)
  d->_g127 = d->_g135 && d->_cg139;
  8045bc:	e0bffc17 	ldw	r2,-16(fp)
  8045c0:	10804f43 	ldbu	r2,317(r2)
  8045c4:	10803fcc 	andi	r2,r2,255
  8045c8:	1080201c 	xori	r2,r2,128
  8045cc:	10bfe004 	addi	r2,r2,-128
  8045d0:	10000826 	beq	r2,zero,8045f4 <logic+0x4364>
  8045d4:	e0bffc17 	ldw	r2,-16(fp)
  8045d8:	10806443 	ldbu	r2,401(r2)
  8045dc:	10803fcc 	andi	r2,r2,255
  8045e0:	1080201c 	xori	r2,r2,128
  8045e4:	10bfe004 	addi	r2,r2,-128
  8045e8:	10000226 	beq	r2,zero,8045f4 <logic+0x4364>
  8045ec:	00800044 	movi	r2,1
  8045f0:	00000106 	br	8045f8 <logic+0x4368>
  8045f4:	0005883a 	mov	r2,zero
  8045f8:	1007883a 	mov	r3,r2
  8045fc:	e0bffc17 	ldw	r2,-16(fp)
  804600:	10c04e05 	stb	r3,312(r2)
  if (d->_g127) {
  804604:	e0bffc17 	ldw	r2,-16(fp)
  804608:	10804e03 	ldbu	r2,312(r2)
  80460c:	10803fcc 	andi	r2,r2,255
  804610:	1080201c 	xori	r2,r2,128
  804614:	10bfe004 	addi	r2,r2,-128
  804618:	10000826 	beq	r2,zero,80463c <logic+0x43ac>
    d->_region4_LRI_t = 0;
  80461c:	e0bffc17 	ldw	r2,-16(fp)
  804620:	10002915 	stw	zero,164(r2)
  804624:	10002a15 	stw	zero,168(r2)
    d->_taken_transitions[19] += 1;
  804628:	e0bffc17 	ldw	r2,-16(fp)
  80462c:	10801a17 	ldw	r2,104(r2)
  804630:	10c00044 	addi	r3,r2,1
  804634:	e0bffc17 	ldw	r2,-16(fp)
  804638:	10c01a15 	stw	r3,104(r2)
  }
  d->_g127_e1 = d->_pg120;
  80463c:	e0bffc17 	ldw	r2,-16(fp)
  804640:	10c07303 	ldbu	r3,460(r2)
  804644:	e0bffc17 	ldw	r2,-16(fp)
  804648:	10c06985 	stb	r3,422(r2)
  d->_cg143 = d->V_EVT;
  80464c:	e0bffc17 	ldw	r2,-16(fp)
  804650:	10c03243 	ldbu	r3,201(r2)
  804654:	e0bffc17 	ldw	r2,-16(fp)
  804658:	10c064c5 	stb	r3,403(r2)
  d->_g136 = d->_g127_e1 && d->_cg143;
  80465c:	e0bffc17 	ldw	r2,-16(fp)
  804660:	10806983 	ldbu	r2,422(r2)
  804664:	10803fcc 	andi	r2,r2,255
  804668:	1080201c 	xori	r2,r2,128
  80466c:	10bfe004 	addi	r2,r2,-128
  804670:	10000826 	beq	r2,zero,804694 <logic+0x4404>
  804674:	e0bffc17 	ldw	r2,-16(fp)
  804678:	108064c3 	ldbu	r2,403(r2)
  80467c:	10803fcc 	andi	r2,r2,255
  804680:	1080201c 	xori	r2,r2,128
  804684:	10bfe004 	addi	r2,r2,-128
  804688:	10000226 	beq	r2,zero,804694 <logic+0x4404>
  80468c:	00800044 	movi	r2,1
  804690:	00000106 	br	804698 <logic+0x4408>
  804694:	0005883a 	mov	r2,zero
  804698:	1007883a 	mov	r3,r2
  80469c:	e0bffc17 	ldw	r2,-16(fp)
  8046a0:	10c04f85 	stb	r3,318(r2)
  if (d->_g136) {
  8046a4:	e0bffc17 	ldw	r2,-16(fp)
  8046a8:	10804f83 	ldbu	r2,318(r2)
  8046ac:	10803fcc 	andi	r2,r2,255
  8046b0:	1080201c 	xori	r2,r2,128
  8046b4:	10bfe004 	addi	r2,r2,-128
  8046b8:	10000526 	beq	r2,zero,8046d0 <logic+0x4440>
    d->_taken_transitions[21] += 1;
  8046bc:	e0bffc17 	ldw	r2,-16(fp)
  8046c0:	10801c17 	ldw	r2,112(r2)
  8046c4:	10c00044 	addi	r3,r2,1
  8046c8:	e0bffc17 	ldw	r2,-16(fp)
  8046cc:	10c01c15 	stw	r3,112(r2)
  }
  d->_g136_e2 = d->_g127_e1 && !d->_cg143;
  8046d0:	e0bffc17 	ldw	r2,-16(fp)
  8046d4:	10806983 	ldbu	r2,422(r2)
  8046d8:	10803fcc 	andi	r2,r2,255
  8046dc:	1080201c 	xori	r2,r2,128
  8046e0:	10bfe004 	addi	r2,r2,-128
  8046e4:	10000826 	beq	r2,zero,804708 <logic+0x4478>
  8046e8:	e0bffc17 	ldw	r2,-16(fp)
  8046ec:	108064c3 	ldbu	r2,403(r2)
  8046f0:	10803fcc 	andi	r2,r2,255
  8046f4:	1080201c 	xori	r2,r2,128
  8046f8:	10bfe004 	addi	r2,r2,-128
  8046fc:	1000021e 	bne	r2,zero,804708 <logic+0x4478>
  804700:	00800044 	movi	r2,1
  804704:	00000106 	br	80470c <logic+0x447c>
  804708:	0005883a 	mov	r2,zero
  80470c:	1007883a 	mov	r3,r2
  804710:	e0bffc17 	ldw	r2,-16(fp)
  804714:	10c069c5 	stb	r3,423(r2)
  d->_cg145 = d->uri_active == 0;
  804718:	e0bffc17 	ldw	r2,-16(fp)
  80471c:	10800003 	ldbu	r2,0(r2)
  804720:	10803fcc 	andi	r2,r2,255
  804724:	1080201c 	xori	r2,r2,128
  804728:	10bfe004 	addi	r2,r2,-128
  80472c:	1005003a 	cmpeq	r2,r2,zero
  804730:	1007883a 	mov	r3,r2
  804734:	e0bffc17 	ldw	r2,-16(fp)
  804738:	10c06485 	stb	r3,402(r2)
  d->_g143 = d->_g136_e2 && d->_cg145;
  80473c:	e0bffc17 	ldw	r2,-16(fp)
  804740:	108069c3 	ldbu	r2,423(r2)
  804744:	10803fcc 	andi	r2,r2,255
  804748:	1080201c 	xori	r2,r2,128
  80474c:	10bfe004 	addi	r2,r2,-128
  804750:	10000826 	beq	r2,zero,804774 <logic+0x44e4>
  804754:	e0bffc17 	ldw	r2,-16(fp)
  804758:	10806483 	ldbu	r2,402(r2)
  80475c:	10803fcc 	andi	r2,r2,255
  804760:	1080201c 	xori	r2,r2,128
  804764:	10bfe004 	addi	r2,r2,-128
  804768:	10000226 	beq	r2,zero,804774 <logic+0x44e4>
  80476c:	00800044 	movi	r2,1
  804770:	00000106 	br	804778 <logic+0x44e8>
  804774:	0005883a 	mov	r2,zero
  804778:	1007883a 	mov	r3,r2
  80477c:	e0bffc17 	ldw	r2,-16(fp)
  804780:	10c05105 	stb	r3,324(r2)
  if (d->_g143) {
  804784:	e0bffc17 	ldw	r2,-16(fp)
  804788:	10805103 	ldbu	r2,324(r2)
  80478c:	10803fcc 	andi	r2,r2,255
  804790:	1080201c 	xori	r2,r2,128
  804794:	10bfe004 	addi	r2,r2,-128
  804798:	10000e26 	beq	r2,zero,8047d4 <logic+0x4544>
    d->VP |= 1;
  80479c:	e0bffc17 	ldw	r2,-16(fp)
  8047a0:	108031c3 	ldbu	r2,199(r2)
  8047a4:	10800054 	ori	r2,r2,1
  8047a8:	1007883a 	mov	r3,r2
  8047ac:	e0bffc17 	ldw	r2,-16(fp)
  8047b0:	10c031c5 	stb	r3,199(r2)
    d->_region4_LRI_t = 0;
  8047b4:	e0bffc17 	ldw	r2,-16(fp)
  8047b8:	10002915 	stw	zero,164(r2)
  8047bc:	10002a15 	stw	zero,168(r2)
    d->_taken_transitions[22] += 1;
  8047c0:	e0bffc17 	ldw	r2,-16(fp)
  8047c4:	10801d17 	ldw	r2,116(r2)
  8047c8:	10c00044 	addi	r3,r2,1
  8047cc:	e0bffc17 	ldw	r2,-16(fp)
  8047d0:	10c01d15 	stw	r3,116(r2)
  }
  d->_g146 = d->_GO || d->_g127 || d->_g136 || d->_g143;
  8047d4:	e0bffc17 	ldw	r2,-16(fp)
  8047d8:	10805803 	ldbu	r2,352(r2)
  8047dc:	10803fcc 	andi	r2,r2,255
  8047e0:	1080201c 	xori	r2,r2,128
  8047e4:	10bfe004 	addi	r2,r2,-128
  8047e8:	1000121e 	bne	r2,zero,804834 <logic+0x45a4>
  8047ec:	e0bffc17 	ldw	r2,-16(fp)
  8047f0:	10804e03 	ldbu	r2,312(r2)
  8047f4:	10803fcc 	andi	r2,r2,255
  8047f8:	1080201c 	xori	r2,r2,128
  8047fc:	10bfe004 	addi	r2,r2,-128
  804800:	10000c1e 	bne	r2,zero,804834 <logic+0x45a4>
  804804:	e0bffc17 	ldw	r2,-16(fp)
  804808:	10804f83 	ldbu	r2,318(r2)
  80480c:	10803fcc 	andi	r2,r2,255
  804810:	1080201c 	xori	r2,r2,128
  804814:	10bfe004 	addi	r2,r2,-128
  804818:	1000061e 	bne	r2,zero,804834 <logic+0x45a4>
  80481c:	e0bffc17 	ldw	r2,-16(fp)
  804820:	10805103 	ldbu	r2,324(r2)
  804824:	10803fcc 	andi	r2,r2,255
  804828:	1080201c 	xori	r2,r2,128
  80482c:	10bfe004 	addi	r2,r2,-128
  804830:	10000226 	beq	r2,zero,80483c <logic+0x45ac>
  804834:	00800044 	movi	r2,1
  804838:	00000106 	br	804840 <logic+0x45b0>
  80483c:	0005883a 	mov	r2,zero
  804840:	1007883a 	mov	r3,r2
  804844:	e0bffc17 	ldw	r2,-16(fp)
  804848:	10c051c5 	stb	r3,327(r2)
  if (d->_g146) {
  80484c:	e0bffc17 	ldw	r2,-16(fp)
  804850:	108051c3 	ldbu	r2,327(r2)
  804854:	10803fcc 	andi	r2,r2,255
  804858:	1080201c 	xori	r2,r2,128
  80485c:	10bfe004 	addi	r2,r2,-128
  804860:	10000426 	beq	r2,zero,804874 <logic+0x45e4>
    d->_Pacemaker_local__Atrig8 = 0;
  804864:	e0bffc17 	ldw	r2,-16(fp)
  804868:	10003605 	stb	zero,216(r2)
    d->_Pacemaker_local__Atrig9 = 0;
  80486c:	e0bffc17 	ldw	r2,-16(fp)
  804870:	10003645 	stb	zero,217(r2)
  }
  d->_cg121 = d->_region4_LRI_t < d->T_LRI;
  804874:	e0bffc17 	ldw	r2,-16(fp)
  804878:	14002917 	ldw	r16,164(r2)
  80487c:	14402a17 	ldw	r17,168(r2)
  804880:	e0bffc17 	ldw	r2,-16(fp)
  804884:	10800517 	ldw	r2,20(r2)
  804888:	1009883a 	mov	r4,r2
  80488c:	0808e200 	call	808e20 <__floatsidf>
  804890:	1009883a 	mov	r4,r2
  804894:	180b883a 	mov	r5,r3
  804898:	04800044 	movi	r18,1
  80489c:	200d883a 	mov	r6,r4
  8048a0:	280f883a 	mov	r7,r5
  8048a4:	8009883a 	mov	r4,r16
  8048a8:	880b883a 	mov	r5,r17
  8048ac:	0807d180 	call	807d18 <__ledf2>
  8048b0:	10000116 	blt	r2,zero,8048b8 <logic+0x4628>
  8048b4:	0025883a 	mov	r18,zero
  8048b8:	9007883a 	mov	r3,r18
  8048bc:	e0bffc17 	ldw	r2,-16(fp)
  8048c0:	10c06245 	stb	r3,393(r2)
  d->_g144 = d->_g146 && d->_cg121;
  8048c4:	e0bffc17 	ldw	r2,-16(fp)
  8048c8:	108051c3 	ldbu	r2,327(r2)
  8048cc:	10803fcc 	andi	r2,r2,255
  8048d0:	1080201c 	xori	r2,r2,128
  8048d4:	10bfe004 	addi	r2,r2,-128
  8048d8:	10000826 	beq	r2,zero,8048fc <logic+0x466c>
  8048dc:	e0bffc17 	ldw	r2,-16(fp)
  8048e0:	10806243 	ldbu	r2,393(r2)
  8048e4:	10803fcc 	andi	r2,r2,255
  8048e8:	1080201c 	xori	r2,r2,128
  8048ec:	10bfe004 	addi	r2,r2,-128
  8048f0:	10000226 	beq	r2,zero,8048fc <logic+0x466c>
  8048f4:	00800044 	movi	r2,1
  8048f8:	00000106 	br	804900 <logic+0x4670>
  8048fc:	0005883a 	mov	r2,zero
  804900:	1007883a 	mov	r3,r2
  804904:	e0bffc17 	ldw	r2,-16(fp)
  804908:	10c05145 	stb	r3,325(r2)
  if (d->_g144) {
  80490c:	e0bffc17 	ldw	r2,-16(fp)
  804910:	10805143 	ldbu	r2,325(r2)
  804914:	10803fcc 	andi	r2,r2,255
  804918:	1080201c 	xori	r2,r2,128
  80491c:	10bfe004 	addi	r2,r2,-128
  804920:	10003426 	beq	r2,zero,8049f4 <logic+0x4764>
    d->sleepT = (d->sleepT < (d->T_LRI - d->_region4_LRI_t)) ? d->sleepT : (d->T_LRI - d->_region4_LRI_t);
  804924:	e0bffc17 	ldw	r2,-16(fp)
  804928:	14002f17 	ldw	r16,188(r2)
  80492c:	14403017 	ldw	r17,192(r2)
  804930:	e0bffc17 	ldw	r2,-16(fp)
  804934:	10800517 	ldw	r2,20(r2)
  804938:	1009883a 	mov	r4,r2
  80493c:	0808e200 	call	808e20 <__floatsidf>
  804940:	1011883a 	mov	r8,r2
  804944:	1813883a 	mov	r9,r3
  804948:	e13ffc17 	ldw	r4,-16(fp)
  80494c:	20802917 	ldw	r2,164(r4)
  804950:	20c02a17 	ldw	r3,168(r4)
  804954:	100d883a 	mov	r6,r2
  804958:	180f883a 	mov	r7,r3
  80495c:	4009883a 	mov	r4,r8
  804960:	480b883a 	mov	r5,r9
  804964:	08085240 	call	808524 <__subdf3>
  804968:	1009883a 	mov	r4,r2
  80496c:	180b883a 	mov	r5,r3
  804970:	2005883a 	mov	r2,r4
  804974:	2807883a 	mov	r3,r5
  804978:	100d883a 	mov	r6,r2
  80497c:	180f883a 	mov	r7,r3
  804980:	8009883a 	mov	r4,r16
  804984:	880b883a 	mov	r5,r17
  804988:	0807d180 	call	807d18 <__ledf2>
  80498c:	1000040e 	bge	r2,zero,8049a0 <logic+0x4710>
  804990:	e13ffc17 	ldw	r4,-16(fp)
  804994:	20802f17 	ldw	r2,188(r4)
  804998:	20c03017 	ldw	r3,192(r4)
  80499c:	00001206 	br	8049e8 <logic+0x4758>
  8049a0:	e0bffc17 	ldw	r2,-16(fp)
  8049a4:	10800517 	ldw	r2,20(r2)
  8049a8:	1009883a 	mov	r4,r2
  8049ac:	0808e200 	call	808e20 <__floatsidf>
  8049b0:	1011883a 	mov	r8,r2
  8049b4:	1813883a 	mov	r9,r3
  8049b8:	e13ffc17 	ldw	r4,-16(fp)
  8049bc:	20802917 	ldw	r2,164(r4)
  8049c0:	20c02a17 	ldw	r3,168(r4)
  8049c4:	100d883a 	mov	r6,r2
  8049c8:	180f883a 	mov	r7,r3
  8049cc:	4009883a 	mov	r4,r8
  8049d0:	480b883a 	mov	r5,r9
  8049d4:	08085240 	call	808524 <__subdf3>
  8049d8:	1009883a 	mov	r4,r2
  8049dc:	180b883a 	mov	r5,r3
  8049e0:	2005883a 	mov	r2,r4
  8049e4:	2807883a 	mov	r3,r5
  8049e8:	e13ffc17 	ldw	r4,-16(fp)
  8049ec:	20802f15 	stw	r2,188(r4)
  8049f0:	20c03015 	stw	r3,192(r4)
  }
  d->_cg122 = d->_Pacemaker_local__Atrig8 || d->_Pacemaker_local__Atrig9;
  8049f4:	e0bffc17 	ldw	r2,-16(fp)
  8049f8:	10803603 	ldbu	r2,216(r2)
  8049fc:	10803fcc 	andi	r2,r2,255
  804a00:	1080201c 	xori	r2,r2,128
  804a04:	10bfe004 	addi	r2,r2,-128
  804a08:	1000061e 	bne	r2,zero,804a24 <logic+0x4794>
  804a0c:	e0bffc17 	ldw	r2,-16(fp)
  804a10:	10803643 	ldbu	r2,217(r2)
  804a14:	10803fcc 	andi	r2,r2,255
  804a18:	1080201c 	xori	r2,r2,128
  804a1c:	10bfe004 	addi	r2,r2,-128
  804a20:	10000226 	beq	r2,zero,804a2c <logic+0x479c>
  804a24:	00800044 	movi	r2,1
  804a28:	00000106 	br	804a30 <logic+0x47a0>
  804a2c:	0005883a 	mov	r2,zero
  804a30:	1007883a 	mov	r3,r2
  804a34:	e0bffc17 	ldw	r2,-16(fp)
  804a38:	10c06285 	stb	r3,394(r2)
  d->_g140 = d->_g144 && !d->_cg122 || d->_g124 && !d->_cg126;
  804a3c:	e0bffc17 	ldw	r2,-16(fp)
  804a40:	10805143 	ldbu	r2,325(r2)
  804a44:	10803fcc 	andi	r2,r2,255
  804a48:	1080201c 	xori	r2,r2,128
  804a4c:	10bfe004 	addi	r2,r2,-128
  804a50:	10000626 	beq	r2,zero,804a6c <logic+0x47dc>
  804a54:	e0bffc17 	ldw	r2,-16(fp)
  804a58:	10806283 	ldbu	r2,394(r2)
  804a5c:	10803fcc 	andi	r2,r2,255
  804a60:	1080201c 	xori	r2,r2,128
  804a64:	10bfe004 	addi	r2,r2,-128
  804a68:	10000c26 	beq	r2,zero,804a9c <logic+0x480c>
  804a6c:	e0bffc17 	ldw	r2,-16(fp)
  804a70:	10804d43 	ldbu	r2,309(r2)
  804a74:	10803fcc 	andi	r2,r2,255
  804a78:	1080201c 	xori	r2,r2,128
  804a7c:	10bfe004 	addi	r2,r2,-128
  804a80:	10000826 	beq	r2,zero,804aa4 <logic+0x4814>
  804a84:	e0bffc17 	ldw	r2,-16(fp)
  804a88:	108062c3 	ldbu	r2,395(r2)
  804a8c:	10803fcc 	andi	r2,r2,255
  804a90:	1080201c 	xori	r2,r2,128
  804a94:	10bfe004 	addi	r2,r2,-128
  804a98:	1000021e 	bne	r2,zero,804aa4 <logic+0x4814>
  804a9c:	00800044 	movi	r2,1
  804aa0:	00000106 	br	804aa8 <logic+0x4818>
  804aa4:	0005883a 	mov	r2,zero
  804aa8:	1007883a 	mov	r3,r2
  804aac:	e0bffc17 	ldw	r2,-16(fp)
  804ab0:	10c05085 	stb	r3,322(r2)
  d->_g122 = d->_g146 && !d->_cg121;
  804ab4:	e0bffc17 	ldw	r2,-16(fp)
  804ab8:	108051c3 	ldbu	r2,327(r2)
  804abc:	10803fcc 	andi	r2,r2,255
  804ac0:	1080201c 	xori	r2,r2,128
  804ac4:	10bfe004 	addi	r2,r2,-128
  804ac8:	10000826 	beq	r2,zero,804aec <logic+0x485c>
  804acc:	e0bffc17 	ldw	r2,-16(fp)
  804ad0:	10806243 	ldbu	r2,393(r2)
  804ad4:	10803fcc 	andi	r2,r2,255
  804ad8:	1080201c 	xori	r2,r2,128
  804adc:	10bfe004 	addi	r2,r2,-128
  804ae0:	1000021e 	bne	r2,zero,804aec <logic+0x485c>
  804ae4:	00800044 	movi	r2,1
  804ae8:	00000106 	br	804af0 <logic+0x4860>
  804aec:	0005883a 	mov	r2,zero
  804af0:	1007883a 	mov	r3,r2
  804af4:	e0bffc17 	ldw	r2,-16(fp)
  804af8:	10c04d05 	stb	r3,308(r2)
  d->_cg131 = d->_Pacemaker_local__Atrig8 || d->_Pacemaker_local__Atrig9;
  804afc:	e0bffc17 	ldw	r2,-16(fp)
  804b00:	10803603 	ldbu	r2,216(r2)
  804b04:	10803fcc 	andi	r2,r2,255
  804b08:	1080201c 	xori	r2,r2,128
  804b0c:	10bfe004 	addi	r2,r2,-128
  804b10:	1000061e 	bne	r2,zero,804b2c <logic+0x489c>
  804b14:	e0bffc17 	ldw	r2,-16(fp)
  804b18:	10803643 	ldbu	r2,217(r2)
  804b1c:	10803fcc 	andi	r2,r2,255
  804b20:	1080201c 	xori	r2,r2,128
  804b24:	10bfe004 	addi	r2,r2,-128
  804b28:	10000226 	beq	r2,zero,804b34 <logic+0x48a4>
  804b2c:	00800044 	movi	r2,1
  804b30:	00000106 	br	804b38 <logic+0x48a8>
  804b34:	0005883a 	mov	r2,zero
  804b38:	1007883a 	mov	r3,r2
  804b3c:	e0bffc17 	ldw	r2,-16(fp)
  804b40:	10c06385 	stb	r3,398(r2)
  d->_g126 = d->_g125 && !d->_cg128 || d->_g122 && !d->_cg131;
  804b44:	e0bffc17 	ldw	r2,-16(fp)
  804b48:	10804d83 	ldbu	r2,310(r2)
  804b4c:	10803fcc 	andi	r2,r2,255
  804b50:	1080201c 	xori	r2,r2,128
  804b54:	10bfe004 	addi	r2,r2,-128
  804b58:	10000626 	beq	r2,zero,804b74 <logic+0x48e4>
  804b5c:	e0bffc17 	ldw	r2,-16(fp)
  804b60:	10806343 	ldbu	r2,397(r2)
  804b64:	10803fcc 	andi	r2,r2,255
  804b68:	1080201c 	xori	r2,r2,128
  804b6c:	10bfe004 	addi	r2,r2,-128
  804b70:	10000c26 	beq	r2,zero,804ba4 <logic+0x4914>
  804b74:	e0bffc17 	ldw	r2,-16(fp)
  804b78:	10804d03 	ldbu	r2,308(r2)
  804b7c:	10803fcc 	andi	r2,r2,255
  804b80:	1080201c 	xori	r2,r2,128
  804b84:	10bfe004 	addi	r2,r2,-128
  804b88:	10000826 	beq	r2,zero,804bac <logic+0x491c>
  804b8c:	e0bffc17 	ldw	r2,-16(fp)
  804b90:	10806383 	ldbu	r2,398(r2)
  804b94:	10803fcc 	andi	r2,r2,255
  804b98:	1080201c 	xori	r2,r2,128
  804b9c:	10bfe004 	addi	r2,r2,-128
  804ba0:	1000021e 	bne	r2,zero,804bac <logic+0x491c>
  804ba4:	00800044 	movi	r2,1
  804ba8:	00000106 	br	804bb0 <logic+0x4920>
  804bac:	0005883a 	mov	r2,zero
  804bb0:	1007883a 	mov	r3,r2
  804bb4:	e0bffc17 	ldw	r2,-16(fp)
  804bb8:	10c04dc5 	stb	r3,311(r2)
  d->_g131 = d->_g146 || d->_g137 && !d->_cg137;
  804bbc:	e0bffc17 	ldw	r2,-16(fp)
  804bc0:	108051c3 	ldbu	r2,327(r2)
  804bc4:	10803fcc 	andi	r2,r2,255
  804bc8:	1080201c 	xori	r2,r2,128
  804bcc:	10bfe004 	addi	r2,r2,-128
  804bd0:	10000c1e 	bne	r2,zero,804c04 <logic+0x4974>
  804bd4:	e0bffc17 	ldw	r2,-16(fp)
  804bd8:	10804fc3 	ldbu	r2,319(r2)
  804bdc:	10803fcc 	andi	r2,r2,255
  804be0:	1080201c 	xori	r2,r2,128
  804be4:	10bfe004 	addi	r2,r2,-128
  804be8:	10000826 	beq	r2,zero,804c0c <logic+0x497c>
  804bec:	e0bffc17 	ldw	r2,-16(fp)
  804bf0:	108063c3 	ldbu	r2,399(r2)
  804bf4:	10803fcc 	andi	r2,r2,255
  804bf8:	1080201c 	xori	r2,r2,128
  804bfc:	10bfe004 	addi	r2,r2,-128
  804c00:	1000021e 	bne	r2,zero,804c0c <logic+0x497c>
  804c04:	00800044 	movi	r2,1
  804c08:	00000106 	br	804c10 <logic+0x4980>
  804c0c:	0005883a 	mov	r2,zero
  804c10:	1007883a 	mov	r3,r2
  804c14:	e0bffc17 	ldw	r2,-16(fp)
  804c18:	10c04ec5 	stb	r3,315(r2)
  d->_g128 = d->_g135 && !d->_cg139;
  804c1c:	e0bffc17 	ldw	r2,-16(fp)
  804c20:	10804f43 	ldbu	r2,317(r2)
  804c24:	10803fcc 	andi	r2,r2,255
  804c28:	1080201c 	xori	r2,r2,128
  804c2c:	10bfe004 	addi	r2,r2,-128
  804c30:	10000826 	beq	r2,zero,804c54 <logic+0x49c4>
  804c34:	e0bffc17 	ldw	r2,-16(fp)
  804c38:	10806443 	ldbu	r2,401(r2)
  804c3c:	10803fcc 	andi	r2,r2,255
  804c40:	1080201c 	xori	r2,r2,128
  804c44:	10bfe004 	addi	r2,r2,-128
  804c48:	1000021e 	bne	r2,zero,804c54 <logic+0x49c4>
  804c4c:	00800044 	movi	r2,1
  804c50:	00000106 	br	804c58 <logic+0x49c8>
  804c54:	0005883a 	mov	r2,zero
  804c58:	1007883a 	mov	r3,r2
  804c5c:	e0bffc17 	ldw	r2,-16(fp)
  804c60:	10c04e45 	stb	r3,313(r2)
  if (d->_g128) {
  804c64:	e0bffc17 	ldw	r2,-16(fp)
  804c68:	10804e43 	ldbu	r2,313(r2)
  804c6c:	10803fcc 	andi	r2,r2,255
  804c70:	1080201c 	xori	r2,r2,128
  804c74:	10bfe004 	addi	r2,r2,-128
  804c78:	10000526 	beq	r2,zero,804c90 <logic+0x4a00>
    d->_taken_transitions[20] += 1;
  804c7c:	e0bffc17 	ldw	r2,-16(fp)
  804c80:	10801b17 	ldw	r2,108(r2)
  804c84:	10c00044 	addi	r3,r2,1
  804c88:	e0bffc17 	ldw	r2,-16(fp)
  804c8c:	10c01b15 	stw	r3,108(r2)
  }
  d->_g120 = d->_g128 || d->_g136_e2 && !d->_cg145;
  804c90:	e0bffc17 	ldw	r2,-16(fp)
  804c94:	10804e43 	ldbu	r2,313(r2)
  804c98:	10803fcc 	andi	r2,r2,255
  804c9c:	1080201c 	xori	r2,r2,128
  804ca0:	10bfe004 	addi	r2,r2,-128
  804ca4:	10000c1e 	bne	r2,zero,804cd8 <logic+0x4a48>
  804ca8:	e0bffc17 	ldw	r2,-16(fp)
  804cac:	108069c3 	ldbu	r2,423(r2)
  804cb0:	10803fcc 	andi	r2,r2,255
  804cb4:	1080201c 	xori	r2,r2,128
  804cb8:	10bfe004 	addi	r2,r2,-128
  804cbc:	10000826 	beq	r2,zero,804ce0 <logic+0x4a50>
  804cc0:	e0bffc17 	ldw	r2,-16(fp)
  804cc4:	10806483 	ldbu	r2,402(r2)
  804cc8:	10803fcc 	andi	r2,r2,255
  804ccc:	1080201c 	xori	r2,r2,128
  804cd0:	10bfe004 	addi	r2,r2,-128
  804cd4:	1000021e 	bne	r2,zero,804ce0 <logic+0x4a50>
  804cd8:	00800044 	movi	r2,1
  804cdc:	00000106 	br	804ce4 <logic+0x4a54>
  804ce0:	0005883a 	mov	r2,zero
  804ce4:	1007883a 	mov	r3,r2
  804ce8:	e0bffc17 	ldw	r2,-16(fp)
  804cec:	10c04cc5 	stb	r3,307(r2)
  d->_g137 = d->_GO || d->_g168 || d->_g107 && !d->_cg150;
  804cf0:	e0bffc17 	ldw	r2,-16(fp)
  804cf4:	10805803 	ldbu	r2,352(r2)
  804cf8:	10803fcc 	andi	r2,r2,255
  804cfc:	1080201c 	xori	r2,r2,128
  804d00:	10bfe004 	addi	r2,r2,-128
  804d04:	1000121e 	bne	r2,zero,804d50 <logic+0x4ac0>
  804d08:	e0bffc17 	ldw	r2,-16(fp)
  804d0c:	10805543 	ldbu	r2,341(r2)
  804d10:	10803fcc 	andi	r2,r2,255
  804d14:	1080201c 	xori	r2,r2,128
  804d18:	10bfe004 	addi	r2,r2,-128
  804d1c:	10000c1e 	bne	r2,zero,804d50 <logic+0x4ac0>
  804d20:	e0bffc17 	ldw	r2,-16(fp)
  804d24:	10804a43 	ldbu	r2,297(r2)
  804d28:	10803fcc 	andi	r2,r2,255
  804d2c:	1080201c 	xori	r2,r2,128
  804d30:	10bfe004 	addi	r2,r2,-128
  804d34:	10000826 	beq	r2,zero,804d58 <logic+0x4ac8>
  804d38:	e0bffc17 	ldw	r2,-16(fp)
  804d3c:	10806503 	ldbu	r2,404(r2)
  804d40:	10803fcc 	andi	r2,r2,255
  804d44:	1080201c 	xori	r2,r2,128
  804d48:	10bfe004 	addi	r2,r2,-128
  804d4c:	1000021e 	bne	r2,zero,804d58 <logic+0x4ac8>
  804d50:	00800044 	movi	r2,1
  804d54:	00000106 	br	804d5c <logic+0x4acc>
  804d58:	0005883a 	mov	r2,zero
  804d5c:	1007883a 	mov	r3,r2
  804d60:	e0bffc17 	ldw	r2,-16(fp)
  804d64:	10c04fc5 	stb	r3,319(r2)
  if (d->_g97_e1) {
  804d68:	e0bffc17 	ldw	r2,-16(fp)
  804d6c:	10806903 	ldbu	r2,420(r2)
  804d70:	10803fcc 	andi	r2,r2,255
  804d74:	1080201c 	xori	r2,r2,128
  804d78:	10bfe004 	addi	r2,r2,-128
  804d7c:	10000826 	beq	r2,zero,804da0 <logic+0x4b10>
    d->_region5_URI_t = 0;
  804d80:	e0bffc17 	ldw	r2,-16(fp)
  804d84:	10002b15 	stw	zero,172(r2)
  804d88:	10002c15 	stw	zero,176(r2)
    d->_taken_transitions[23] += 1;
  804d8c:	e0bffc17 	ldw	r2,-16(fp)
  804d90:	10801e17 	ldw	r2,120(r2)
  804d94:	10c00044 	addi	r3,r2,1
  804d98:	e0bffc17 	ldw	r2,-16(fp)
  804d9c:	10c01e15 	stw	r3,120(r2)
  }
  d->_g139 = d->_g167 && d->_cg171;
  804da0:	e0bffc17 	ldw	r2,-16(fp)
  804da4:	10805503 	ldbu	r2,340(r2)
  804da8:	10803fcc 	andi	r2,r2,255
  804dac:	1080201c 	xori	r2,r2,128
  804db0:	10bfe004 	addi	r2,r2,-128
  804db4:	10000826 	beq	r2,zero,804dd8 <logic+0x4b48>
  804db8:	e0bffc17 	ldw	r2,-16(fp)
  804dbc:	10806743 	ldbu	r2,413(r2)
  804dc0:	10803fcc 	andi	r2,r2,255
  804dc4:	1080201c 	xori	r2,r2,128
  804dc8:	10bfe004 	addi	r2,r2,-128
  804dcc:	10000226 	beq	r2,zero,804dd8 <logic+0x4b48>
  804dd0:	00800044 	movi	r2,1
  804dd4:	00000106 	br	804ddc <logic+0x4b4c>
  804dd8:	0005883a 	mov	r2,zero
  804ddc:	1007883a 	mov	r3,r2
  804de0:	e0bffc17 	ldw	r2,-16(fp)
  804de4:	10c05045 	stb	r3,321(r2)
  if (d->_g139) {
  804de8:	e0bffc17 	ldw	r2,-16(fp)
  804dec:	10805043 	ldbu	r2,321(r2)
  804df0:	10803fcc 	andi	r2,r2,255
  804df4:	1080201c 	xori	r2,r2,128
  804df8:	10bfe004 	addi	r2,r2,-128
  804dfc:	10000826 	beq	r2,zero,804e20 <logic+0x4b90>
    d->_region5_URI_t = 0;
  804e00:	e0bffc17 	ldw	r2,-16(fp)
  804e04:	10002b15 	stw	zero,172(r2)
  804e08:	10002c15 	stw	zero,176(r2)
    d->_taken_transitions[24] += 1;
  804e0c:	e0bffc17 	ldw	r2,-16(fp)
  804e10:	10801f17 	ldw	r2,124(r2)
  804e14:	10c00044 	addi	r3,r2,1
  804e18:	e0bffc17 	ldw	r2,-16(fp)
  804e1c:	10c01f15 	stw	r3,124(r2)
  }
  d->_g145 = d->_g97_e1 || d->_g139;
  804e20:	e0bffc17 	ldw	r2,-16(fp)
  804e24:	10806903 	ldbu	r2,420(r2)
  804e28:	10803fcc 	andi	r2,r2,255
  804e2c:	1080201c 	xori	r2,r2,128
  804e30:	10bfe004 	addi	r2,r2,-128
  804e34:	1000061e 	bne	r2,zero,804e50 <logic+0x4bc0>
  804e38:	e0bffc17 	ldw	r2,-16(fp)
  804e3c:	10805043 	ldbu	r2,321(r2)
  804e40:	10803fcc 	andi	r2,r2,255
  804e44:	1080201c 	xori	r2,r2,128
  804e48:	10bfe004 	addi	r2,r2,-128
  804e4c:	10000226 	beq	r2,zero,804e58 <logic+0x4bc8>
  804e50:	00800044 	movi	r2,1
  804e54:	00000106 	br	804e5c <logic+0x4bcc>
  804e58:	0005883a 	mov	r2,zero
  804e5c:	1007883a 	mov	r3,r2
  804e60:	e0bffc17 	ldw	r2,-16(fp)
  804e64:	10c05185 	stb	r3,326(r2)
  if (d->_g145) {
  804e68:	e0bffc17 	ldw	r2,-16(fp)
  804e6c:	10805183 	ldbu	r2,326(r2)
  804e70:	10803fcc 	andi	r2,r2,255
  804e74:	1080201c 	xori	r2,r2,128
  804e78:	10bfe004 	addi	r2,r2,-128
  804e7c:	10000426 	beq	r2,zero,804e90 <logic+0x4c00>
    d->_Pacemaker_local__Atrig10 = 0;
  804e80:	e0bffc17 	ldw	r2,-16(fp)
  804e84:	10003685 	stb	zero,218(r2)
    d->_Pacemaker_local__Atrig11 = 0;
  804e88:	e0bffc17 	ldw	r2,-16(fp)
  804e8c:	100036c5 	stb	zero,219(r2)
  }
  d->_cg153 = d->_region5_URI_t < d->T_URI;
  804e90:	e0bffc17 	ldw	r2,-16(fp)
  804e94:	14002b17 	ldw	r16,172(r2)
  804e98:	14402c17 	ldw	r17,176(r2)
  804e9c:	e0bffc17 	ldw	r2,-16(fp)
  804ea0:	10800617 	ldw	r2,24(r2)
  804ea4:	1009883a 	mov	r4,r2
  804ea8:	0808e200 	call	808e20 <__floatsidf>
  804eac:	1009883a 	mov	r4,r2
  804eb0:	180b883a 	mov	r5,r3
  804eb4:	04800044 	movi	r18,1
  804eb8:	200d883a 	mov	r6,r4
  804ebc:	280f883a 	mov	r7,r5
  804ec0:	8009883a 	mov	r4,r16
  804ec4:	880b883a 	mov	r5,r17
  804ec8:	0807d180 	call	807d18 <__ledf2>
  804ecc:	10000116 	blt	r2,zero,804ed4 <logic+0x4c44>
  804ed0:	0025883a 	mov	r18,zero
  804ed4:	9007883a 	mov	r3,r18
  804ed8:	e0bffc17 	ldw	r2,-16(fp)
  804edc:	10c06545 	stb	r3,405(r2)
  d->_g141 = d->_g145 && d->_cg153;
  804ee0:	e0bffc17 	ldw	r2,-16(fp)
  804ee4:	10805183 	ldbu	r2,326(r2)
  804ee8:	10803fcc 	andi	r2,r2,255
  804eec:	1080201c 	xori	r2,r2,128
  804ef0:	10bfe004 	addi	r2,r2,-128
  804ef4:	10000826 	beq	r2,zero,804f18 <logic+0x4c88>
  804ef8:	e0bffc17 	ldw	r2,-16(fp)
  804efc:	10806543 	ldbu	r2,405(r2)
  804f00:	10803fcc 	andi	r2,r2,255
  804f04:	1080201c 	xori	r2,r2,128
  804f08:	10bfe004 	addi	r2,r2,-128
  804f0c:	10000226 	beq	r2,zero,804f18 <logic+0x4c88>
  804f10:	00800044 	movi	r2,1
  804f14:	00000106 	br	804f1c <logic+0x4c8c>
  804f18:	0005883a 	mov	r2,zero
  804f1c:	1007883a 	mov	r3,r2
  804f20:	e0bffc17 	ldw	r2,-16(fp)
  804f24:	10c050c5 	stb	r3,323(r2)
  if (d->_g141) {
  804f28:	e0bffc17 	ldw	r2,-16(fp)
  804f2c:	108050c3 	ldbu	r2,323(r2)
  804f30:	10803fcc 	andi	r2,r2,255
  804f34:	1080201c 	xori	r2,r2,128
  804f38:	10bfe004 	addi	r2,r2,-128
  804f3c:	10003426 	beq	r2,zero,805010 <logic+0x4d80>
    d->sleepT = (d->sleepT < (d->T_URI - d->_region5_URI_t)) ? d->sleepT : (d->T_URI - d->_region5_URI_t);
  804f40:	e0bffc17 	ldw	r2,-16(fp)
  804f44:	14002f17 	ldw	r16,188(r2)
  804f48:	14403017 	ldw	r17,192(r2)
  804f4c:	e0bffc17 	ldw	r2,-16(fp)
  804f50:	10800617 	ldw	r2,24(r2)
  804f54:	1009883a 	mov	r4,r2
  804f58:	0808e200 	call	808e20 <__floatsidf>
  804f5c:	1011883a 	mov	r8,r2
  804f60:	1813883a 	mov	r9,r3
  804f64:	e13ffc17 	ldw	r4,-16(fp)
  804f68:	20802b17 	ldw	r2,172(r4)
  804f6c:	20c02c17 	ldw	r3,176(r4)
  804f70:	100d883a 	mov	r6,r2
  804f74:	180f883a 	mov	r7,r3
  804f78:	4009883a 	mov	r4,r8
  804f7c:	480b883a 	mov	r5,r9
  804f80:	08085240 	call	808524 <__subdf3>
  804f84:	1009883a 	mov	r4,r2
  804f88:	180b883a 	mov	r5,r3
  804f8c:	2005883a 	mov	r2,r4
  804f90:	2807883a 	mov	r3,r5
  804f94:	100d883a 	mov	r6,r2
  804f98:	180f883a 	mov	r7,r3
  804f9c:	8009883a 	mov	r4,r16
  804fa0:	880b883a 	mov	r5,r17
  804fa4:	0807d180 	call	807d18 <__ledf2>
  804fa8:	1000040e 	bge	r2,zero,804fbc <logic+0x4d2c>
  804fac:	e13ffc17 	ldw	r4,-16(fp)
  804fb0:	20802f17 	ldw	r2,188(r4)
  804fb4:	20c03017 	ldw	r3,192(r4)
  804fb8:	00001206 	br	805004 <logic+0x4d74>
  804fbc:	e0bffc17 	ldw	r2,-16(fp)
  804fc0:	10800617 	ldw	r2,24(r2)
  804fc4:	1009883a 	mov	r4,r2
  804fc8:	0808e200 	call	808e20 <__floatsidf>
  804fcc:	1011883a 	mov	r8,r2
  804fd0:	1813883a 	mov	r9,r3
  804fd4:	e13ffc17 	ldw	r4,-16(fp)
  804fd8:	20802b17 	ldw	r2,172(r4)
  804fdc:	20c02c17 	ldw	r3,176(r4)
  804fe0:	100d883a 	mov	r6,r2
  804fe4:	180f883a 	mov	r7,r3
  804fe8:	4009883a 	mov	r4,r8
  804fec:	480b883a 	mov	r5,r9
  804ff0:	08085240 	call	808524 <__subdf3>
  804ff4:	1009883a 	mov	r4,r2
  804ff8:	180b883a 	mov	r5,r3
  804ffc:	2005883a 	mov	r2,r4
  805000:	2807883a 	mov	r3,r5
  805004:	e13ffc17 	ldw	r4,-16(fp)
  805008:	20802f15 	stw	r2,188(r4)
  80500c:	20c03015 	stw	r3,192(r4)
  }
  d->_cg154 = d->_Pacemaker_local__Atrig10 || d->_Pacemaker_local__Atrig11;
  805010:	e0bffc17 	ldw	r2,-16(fp)
  805014:	10803683 	ldbu	r2,218(r2)
  805018:	10803fcc 	andi	r2,r2,255
  80501c:	1080201c 	xori	r2,r2,128
  805020:	10bfe004 	addi	r2,r2,-128
  805024:	1000061e 	bne	r2,zero,805040 <logic+0x4db0>
  805028:	e0bffc17 	ldw	r2,-16(fp)
  80502c:	108036c3 	ldbu	r2,219(r2)
  805030:	10803fcc 	andi	r2,r2,255
  805034:	1080201c 	xori	r2,r2,128
  805038:	10bfe004 	addi	r2,r2,-128
  80503c:	10000226 	beq	r2,zero,805048 <logic+0x4db8>
  805040:	00800044 	movi	r2,1
  805044:	00000106 	br	80504c <logic+0x4dbc>
  805048:	0005883a 	mov	r2,zero
  80504c:	1007883a 	mov	r3,r2
  805050:	e0bffc17 	ldw	r2,-16(fp)
  805054:	10c06585 	stb	r3,406(r2)
  d->_g150 = d->_g141 && !d->_cg154 || d->_g162 && !d->_cg158;
  805058:	e0bffc17 	ldw	r2,-16(fp)
  80505c:	108050c3 	ldbu	r2,323(r2)
  805060:	10803fcc 	andi	r2,r2,255
  805064:	1080201c 	xori	r2,r2,128
  805068:	10bfe004 	addi	r2,r2,-128
  80506c:	10000626 	beq	r2,zero,805088 <logic+0x4df8>
  805070:	e0bffc17 	ldw	r2,-16(fp)
  805074:	10806583 	ldbu	r2,406(r2)
  805078:	10803fcc 	andi	r2,r2,255
  80507c:	1080201c 	xori	r2,r2,128
  805080:	10bfe004 	addi	r2,r2,-128
  805084:	10000c26 	beq	r2,zero,8050b8 <logic+0x4e28>
  805088:	e0bffc17 	ldw	r2,-16(fp)
  80508c:	10805443 	ldbu	r2,337(r2)
  805090:	10803fcc 	andi	r2,r2,255
  805094:	1080201c 	xori	r2,r2,128
  805098:	10bfe004 	addi	r2,r2,-128
  80509c:	10000826 	beq	r2,zero,8050c0 <logic+0x4e30>
  8050a0:	e0bffc17 	ldw	r2,-16(fp)
  8050a4:	108065c3 	ldbu	r2,407(r2)
  8050a8:	10803fcc 	andi	r2,r2,255
  8050ac:	1080201c 	xori	r2,r2,128
  8050b0:	10bfe004 	addi	r2,r2,-128
  8050b4:	1000021e 	bne	r2,zero,8050c0 <logic+0x4e30>
  8050b8:	00800044 	movi	r2,1
  8050bc:	00000106 	br	8050c4 <logic+0x4e34>
  8050c0:	0005883a 	mov	r2,zero
  8050c4:	1007883a 	mov	r3,r2
  8050c8:	e0bffc17 	ldw	r2,-16(fp)
  8050cc:	10c05205 	stb	r3,328(r2)
  d->_g173 = d->_g145 && !d->_cg153;
  8050d0:	e0bffc17 	ldw	r2,-16(fp)
  8050d4:	10805183 	ldbu	r2,326(r2)
  8050d8:	10803fcc 	andi	r2,r2,255
  8050dc:	1080201c 	xori	r2,r2,128
  8050e0:	10bfe004 	addi	r2,r2,-128
  8050e4:	10000826 	beq	r2,zero,805108 <logic+0x4e78>
  8050e8:	e0bffc17 	ldw	r2,-16(fp)
  8050ec:	10806543 	ldbu	r2,405(r2)
  8050f0:	10803fcc 	andi	r2,r2,255
  8050f4:	1080201c 	xori	r2,r2,128
  8050f8:	10bfe004 	addi	r2,r2,-128
  8050fc:	1000021e 	bne	r2,zero,805108 <logic+0x4e78>
  805100:	00800044 	movi	r2,1
  805104:	00000106 	br	80510c <logic+0x4e7c>
  805108:	0005883a 	mov	r2,zero
  80510c:	1007883a 	mov	r3,r2
  805110:	e0bffc17 	ldw	r2,-16(fp)
  805114:	10c05685 	stb	r3,346(r2)
  d->_cg163 = d->_Pacemaker_local__Atrig10 || d->_Pacemaker_local__Atrig11;
  805118:	e0bffc17 	ldw	r2,-16(fp)
  80511c:	10803683 	ldbu	r2,218(r2)
  805120:	10803fcc 	andi	r2,r2,255
  805124:	1080201c 	xori	r2,r2,128
  805128:	10bfe004 	addi	r2,r2,-128
  80512c:	1000061e 	bne	r2,zero,805148 <logic+0x4eb8>
  805130:	e0bffc17 	ldw	r2,-16(fp)
  805134:	108036c3 	ldbu	r2,219(r2)
  805138:	10803fcc 	andi	r2,r2,255
  80513c:	1080201c 	xori	r2,r2,128
  805140:	10bfe004 	addi	r2,r2,-128
  805144:	10000226 	beq	r2,zero,805150 <logic+0x4ec0>
  805148:	00800044 	movi	r2,1
  80514c:	00000106 	br	805154 <logic+0x4ec4>
  805150:	0005883a 	mov	r2,zero
  805154:	1007883a 	mov	r3,r2
  805158:	e0bffc17 	ldw	r2,-16(fp)
  80515c:	10c06685 	stb	r3,410(r2)
  d->_g171 = d->_g157 && !d->_cg160 || d->_g173 && !d->_cg163;
  805160:	e0bffc17 	ldw	r2,-16(fp)
  805164:	10805343 	ldbu	r2,333(r2)
  805168:	10803fcc 	andi	r2,r2,255
  80516c:	1080201c 	xori	r2,r2,128
  805170:	10bfe004 	addi	r2,r2,-128
  805174:	10000626 	beq	r2,zero,805190 <logic+0x4f00>
  805178:	e0bffc17 	ldw	r2,-16(fp)
  80517c:	10806643 	ldbu	r2,409(r2)
  805180:	10803fcc 	andi	r2,r2,255
  805184:	1080201c 	xori	r2,r2,128
  805188:	10bfe004 	addi	r2,r2,-128
  80518c:	10000c26 	beq	r2,zero,8051c0 <logic+0x4f30>
  805190:	e0bffc17 	ldw	r2,-16(fp)
  805194:	10805683 	ldbu	r2,346(r2)
  805198:	10803fcc 	andi	r2,r2,255
  80519c:	1080201c 	xori	r2,r2,128
  8051a0:	10bfe004 	addi	r2,r2,-128
  8051a4:	10000826 	beq	r2,zero,8051c8 <logic+0x4f38>
  8051a8:	e0bffc17 	ldw	r2,-16(fp)
  8051ac:	10806683 	ldbu	r2,410(r2)
  8051b0:	10803fcc 	andi	r2,r2,255
  8051b4:	1080201c 	xori	r2,r2,128
  8051b8:	10bfe004 	addi	r2,r2,-128
  8051bc:	1000021e 	bne	r2,zero,8051c8 <logic+0x4f38>
  8051c0:	00800044 	movi	r2,1
  8051c4:	00000106 	br	8051cc <logic+0x4f3c>
  8051c8:	0005883a 	mov	r2,zero
  8051cc:	1007883a 	mov	r3,r2
  8051d0:	e0bffc17 	ldw	r2,-16(fp)
  8051d4:	10c05605 	stb	r3,344(r2)
  d->_g172 = d->_g145 || d->_g169 && !d->_cg169;
  8051d8:	e0bffc17 	ldw	r2,-16(fp)
  8051dc:	10805183 	ldbu	r2,326(r2)
  8051e0:	10803fcc 	andi	r2,r2,255
  8051e4:	1080201c 	xori	r2,r2,128
  8051e8:	10bfe004 	addi	r2,r2,-128
  8051ec:	10000c1e 	bne	r2,zero,805220 <logic+0x4f90>
  8051f0:	e0bffc17 	ldw	r2,-16(fp)
  8051f4:	10805583 	ldbu	r2,342(r2)
  8051f8:	10803fcc 	andi	r2,r2,255
  8051fc:	1080201c 	xori	r2,r2,128
  805200:	10bfe004 	addi	r2,r2,-128
  805204:	10000826 	beq	r2,zero,805228 <logic+0x4f98>
  805208:	e0bffc17 	ldw	r2,-16(fp)
  80520c:	108066c3 	ldbu	r2,411(r2)
  805210:	10803fcc 	andi	r2,r2,255
  805214:	1080201c 	xori	r2,r2,128
  805218:	10bfe004 	addi	r2,r2,-128
  80521c:	1000021e 	bne	r2,zero,805228 <logic+0x4f98>
  805220:	00800044 	movi	r2,1
  805224:	00000106 	br	80522c <logic+0x4f9c>
  805228:	0005883a 	mov	r2,zero
  80522c:	1007883a 	mov	r3,r2
  805230:	e0bffc17 	ldw	r2,-16(fp)
  805234:	10c05645 	stb	r3,345(r2)
  d->_g151 = d->_GO || d->_g181;
  805238:	e0bffc17 	ldw	r2,-16(fp)
  80523c:	10805803 	ldbu	r2,352(r2)
  805240:	10803fcc 	andi	r2,r2,255
  805244:	1080201c 	xori	r2,r2,128
  805248:	10bfe004 	addi	r2,r2,-128
  80524c:	1000061e 	bne	r2,zero,805268 <logic+0x4fd8>
  805250:	e0bffc17 	ldw	r2,-16(fp)
  805254:	108056c3 	ldbu	r2,347(r2)
  805258:	10803fcc 	andi	r2,r2,255
  80525c:	1080201c 	xori	r2,r2,128
  805260:	10bfe004 	addi	r2,r2,-128
  805264:	10000226 	beq	r2,zero,805270 <logic+0x4fe0>
  805268:	00800044 	movi	r2,1
  80526c:	00000106 	br	805274 <logic+0x4fe4>
  805270:	0005883a 	mov	r2,zero
  805274:	1007883a 	mov	r3,r2
  805278:	e0bffc17 	ldw	r2,-16(fp)
  80527c:	10c05245 	stb	r3,329(r2)
  d->_g154 = d->_GO || d->_g185;
  805280:	e0bffc17 	ldw	r2,-16(fp)
  805284:	10805803 	ldbu	r2,352(r2)
  805288:	10803fcc 	andi	r2,r2,255
  80528c:	1080201c 	xori	r2,r2,128
  805290:	10bfe004 	addi	r2,r2,-128
  805294:	1000061e 	bne	r2,zero,8052b0 <logic+0x5020>
  805298:	e0bffc17 	ldw	r2,-16(fp)
  80529c:	10805703 	ldbu	r2,348(r2)
  8052a0:	10803fcc 	andi	r2,r2,255
  8052a4:	1080201c 	xori	r2,r2,128
  8052a8:	10bfe004 	addi	r2,r2,-128
  8052ac:	10000226 	beq	r2,zero,8052b8 <logic+0x5028>
  8052b0:	00800044 	movi	r2,1
  8052b4:	00000106 	br	8052bc <logic+0x502c>
  8052b8:	0005883a 	mov	r2,zero
  8052bc:	1007883a 	mov	r3,r2
  8052c0:	e0bffc17 	ldw	r2,-16(fp)
  8052c4:	10c052c5 	stb	r3,331(r2)
  d->_g158 = d->_GO || d->_g63;
  8052c8:	e0bffc17 	ldw	r2,-16(fp)
  8052cc:	10805803 	ldbu	r2,352(r2)
  8052d0:	10803fcc 	andi	r2,r2,255
  8052d4:	1080201c 	xori	r2,r2,128
  8052d8:	10bfe004 	addi	r2,r2,-128
  8052dc:	1000061e 	bne	r2,zero,8052f8 <logic+0x5068>
  8052e0:	e0bffc17 	ldw	r2,-16(fp)
  8052e4:	10804243 	ldbu	r2,265(r2)
  8052e8:	10803fcc 	andi	r2,r2,255
  8052ec:	1080201c 	xori	r2,r2,128
  8052f0:	10bfe004 	addi	r2,r2,-128
  8052f4:	10000226 	beq	r2,zero,805300 <logic+0x5070>
  8052f8:	00800044 	movi	r2,1
  8052fc:	00000106 	br	805304 <logic+0x5074>
  805300:	0005883a 	mov	r2,zero
  805304:	1007883a 	mov	r3,r2
  805308:	e0bffc17 	ldw	r2,-16(fp)
  80530c:	10c05385 	stb	r3,334(r2)
  d->_g163 = d->_GO || d->_g86;
  805310:	e0bffc17 	ldw	r2,-16(fp)
  805314:	10805803 	ldbu	r2,352(r2)
  805318:	10803fcc 	andi	r2,r2,255
  80531c:	1080201c 	xori	r2,r2,128
  805320:	10bfe004 	addi	r2,r2,-128
  805324:	1000061e 	bne	r2,zero,805340 <logic+0x50b0>
  805328:	e0bffc17 	ldw	r2,-16(fp)
  80532c:	10804683 	ldbu	r2,282(r2)
  805330:	10803fcc 	andi	r2,r2,255
  805334:	1080201c 	xori	r2,r2,128
  805338:	10bfe004 	addi	r2,r2,-128
  80533c:	10000226 	beq	r2,zero,805348 <logic+0x50b8>
  805340:	00800044 	movi	r2,1
  805344:	00000106 	br	80534c <logic+0x50bc>
  805348:	0005883a 	mov	r2,zero
  80534c:	1007883a 	mov	r3,r2
  805350:	e0bffc17 	ldw	r2,-16(fp)
  805354:	10c05485 	stb	r3,338(r2)
  d->_g160 = d->_GO || d->_g92;
  805358:	e0bffc17 	ldw	r2,-16(fp)
  80535c:	10805803 	ldbu	r2,352(r2)
  805360:	10803fcc 	andi	r2,r2,255
  805364:	1080201c 	xori	r2,r2,128
  805368:	10bfe004 	addi	r2,r2,-128
  80536c:	1000061e 	bne	r2,zero,805388 <logic+0x50f8>
  805370:	e0bffc17 	ldw	r2,-16(fp)
  805374:	10804743 	ldbu	r2,285(r2)
  805378:	10803fcc 	andi	r2,r2,255
  80537c:	1080201c 	xori	r2,r2,128
  805380:	10bfe004 	addi	r2,r2,-128
  805384:	10000226 	beq	r2,zero,805390 <logic+0x5100>
  805388:	00800044 	movi	r2,1
  80538c:	00000106 	br	805394 <logic+0x5104>
  805390:	0005883a 	mov	r2,zero
  805394:	1007883a 	mov	r3,r2
  805398:	e0bffc17 	ldw	r2,-16(fp)
  80539c:	10c05405 	stb	r3,336(r2)
  d->_g152 = d->_GO || d->_g201;
  8053a0:	e0bffc17 	ldw	r2,-16(fp)
  8053a4:	10805803 	ldbu	r2,352(r2)
  8053a8:	10803fcc 	andi	r2,r2,255
  8053ac:	1080201c 	xori	r2,r2,128
  8053b0:	10bfe004 	addi	r2,r2,-128
  8053b4:	1000061e 	bne	r2,zero,8053d0 <logic+0x5140>
  8053b8:	e0bffc17 	ldw	r2,-16(fp)
  8053bc:	10805743 	ldbu	r2,349(r2)
  8053c0:	10803fcc 	andi	r2,r2,255
  8053c4:	1080201c 	xori	r2,r2,128
  8053c8:	10bfe004 	addi	r2,r2,-128
  8053cc:	10000226 	beq	r2,zero,8053d8 <logic+0x5148>
  8053d0:	00800044 	movi	r2,1
  8053d4:	00000106 	br	8053dc <logic+0x514c>
  8053d8:	0005883a 	mov	r2,zero
  8053dc:	1007883a 	mov	r3,r2
  8053e0:	e0bffc17 	ldw	r2,-16(fp)
  8053e4:	10c05285 	stb	r3,330(r2)
  if (d->_g42_e1) {
  8053e8:	e0bffc17 	ldw	r2,-16(fp)
  8053ec:	10806803 	ldbu	r2,416(r2)
  8053f0:	10803fcc 	andi	r2,r2,255
  8053f4:	1080201c 	xori	r2,r2,128
  8053f8:	10bfe004 	addi	r2,r2,-128
  8053fc:	10000426 	beq	r2,zero,805410 <logic+0x5180>
    d->_reg_AP = d->AP;
  805400:	e0bffc17 	ldw	r2,-16(fp)
  805404:	10c03183 	ldbu	r3,198(r2)
  805408:	e0bffc17 	ldw	r2,-16(fp)
  80540c:	10c03305 	stb	r3,204(r2)
  }
  if (d->_g13_e1) {
  805410:	e0bffc17 	ldw	r2,-16(fp)
  805414:	10806783 	ldbu	r2,414(r2)
  805418:	10803fcc 	andi	r2,r2,255
  80541c:	1080201c 	xori	r2,r2,128
  805420:	10bfe004 	addi	r2,r2,-128
  805424:	10000426 	beq	r2,zero,805438 <logic+0x51a8>
    d->_reg_VP = d->VP;
  805428:	e0bffc17 	ldw	r2,-16(fp)
  80542c:	10c031c3 	ldbu	r3,199(r2)
  805430:	e0bffc17 	ldw	r2,-16(fp)
  805434:	10c03385 	stb	r3,206(r2)
  }
}
  805438:	0001883a 	nop
  80543c:	e6fffd04 	addi	sp,fp,-12
  805440:	dfc00417 	ldw	ra,16(sp)
  805444:	df000317 	ldw	fp,12(sp)
  805448:	dc800217 	ldw	r18,8(sp)
  80544c:	dc400117 	ldw	r17,4(sp)
  805450:	dc000017 	ldw	r16,0(sp)
  805454:	dec00504 	addi	sp,sp,20
  805458:	f800283a 	ret

0080545c <reset>:

void reset(TickData* d) {
  80545c:	defffe04 	addi	sp,sp,-8
  805460:	df000115 	stw	fp,4(sp)
  805464:	df000104 	addi	fp,sp,4
  805468:	e13fff15 	stw	r4,-4(fp)
  d->_GO = 1;
  80546c:	e0bfff17 	ldw	r2,-4(fp)
  805470:	00c00044 	movi	r3,1
  805474:	10c05805 	stb	r3,352(r2)
  d->_TERM = 0;
  805478:	e0bfff17 	ldw	r2,-4(fp)
  80547c:	10006a85 	stb	zero,426(r2)
  d->T_AVI = AVI_VALUE;
  805480:	e0bfff17 	ldw	r2,-4(fp)
  805484:	00c04b04 	movi	r3,300
  805488:	10c00115 	stw	r3,4(r2)
  d->T_AEI = AEI_VALUE;
  80548c:	e0bfff17 	ldw	r2,-4(fp)
  805490:	00c0c804 	movi	r3,800
  805494:	10c00215 	stw	r3,8(r2)
  d->T_PVAR = PVARP_VALUE;
  805498:	e0bfff17 	ldw	r2,-4(fp)
  80549c:	00c00c84 	movi	r3,50
  8054a0:	10c00315 	stw	r3,12(r2)
  d->T_VRP = VRP_VALUE;
  8054a4:	e0bfff17 	ldw	r2,-4(fp)
  8054a8:	00c02584 	movi	r3,150
  8054ac:	10c00415 	stw	r3,16(r2)
  d->T_LRI = LRI_VALUE;
  8054b0:	e0bfff17 	ldw	r2,-4(fp)
  8054b4:	00c0ed84 	movi	r3,950
  8054b8:	10c00515 	stw	r3,20(r2)
  d->T_URI = URI_VALUE;
  8054bc:	e0bfff17 	ldw	r2,-4(fp)
  8054c0:	10000615 	stw	zero,24(r2)
  d->_region0_VRefrac_t = 0;
  8054c4:	e0bfff17 	ldw	r2,-4(fp)
  8054c8:	10002115 	stw	zero,132(r2)
  8054cc:	10002215 	stw	zero,136(r2)
  d->_region1_ARefrac_t = 0;
  8054d0:	e0bfff17 	ldw	r2,-4(fp)
  8054d4:	10002315 	stw	zero,140(r2)
  8054d8:	10002415 	stw	zero,144(r2)
  d->_region2_AEI_t = 0;
  8054dc:	e0bfff17 	ldw	r2,-4(fp)
  8054e0:	10002515 	stw	zero,148(r2)
  8054e4:	10002615 	stw	zero,152(r2)
  d->_region3_AVI_t = 0;
  8054e8:	e0bfff17 	ldw	r2,-4(fp)
  8054ec:	10002715 	stw	zero,156(r2)
  8054f0:	10002815 	stw	zero,160(r2)
  d->_region4_LRI_t = 0;
  8054f4:	e0bfff17 	ldw	r2,-4(fp)
  8054f8:	10002915 	stw	zero,164(r2)
  8054fc:	10002a15 	stw	zero,168(r2)
  d->_region5_URI_t = 0;
  805500:	e0bfff17 	ldw	r2,-4(fp)
  805504:	10002b15 	stw	zero,172(r2)
  805508:	10002c15 	stw	zero,176(r2)
  d->deltaT = 0.0;
  80550c:	e0bfff17 	ldw	r2,-4(fp)
  805510:	10002d15 	stw	zero,180(r2)
  805514:	10002e15 	stw	zero,184(r2)
  d->sleepT = 0.0;
  805518:	e0bfff17 	ldw	r2,-4(fp)
  80551c:	10002f15 	stw	zero,188(r2)
  805520:	10003015 	stw	zero,192(r2)
  d->_reg_AP = 0;
  805524:	e0bfff17 	ldw	r2,-4(fp)
  805528:	10003305 	stb	zero,204(r2)
  d->_reg_VP = 0;
  80552c:	e0bfff17 	ldw	r2,-4(fp)
  805530:	10003385 	stb	zero,206(r2)
  d->_taken_transitions[0] = 0;
  805534:	e0bfff17 	ldw	r2,-4(fp)
  805538:	10000715 	stw	zero,28(r2)
  d->_taken_transitions[1] = 0;
  80553c:	e0bfff17 	ldw	r2,-4(fp)
  805540:	10000815 	stw	zero,32(r2)
  d->_taken_transitions[2] = 0;
  805544:	e0bfff17 	ldw	r2,-4(fp)
  805548:	10000915 	stw	zero,36(r2)
  d->_taken_transitions[3] = 0;
  80554c:	e0bfff17 	ldw	r2,-4(fp)
  805550:	10000a15 	stw	zero,40(r2)
  d->_taken_transitions[4] = 0;
  805554:	e0bfff17 	ldw	r2,-4(fp)
  805558:	10000b15 	stw	zero,44(r2)
  d->_taken_transitions[5] = 0;
  80555c:	e0bfff17 	ldw	r2,-4(fp)
  805560:	10000c15 	stw	zero,48(r2)
  d->_taken_transitions[6] = 0;
  805564:	e0bfff17 	ldw	r2,-4(fp)
  805568:	10000d15 	stw	zero,52(r2)
  d->_taken_transitions[7] = 0;
  80556c:	e0bfff17 	ldw	r2,-4(fp)
  805570:	10000e15 	stw	zero,56(r2)
  d->_taken_transitions[8] = 0;
  805574:	e0bfff17 	ldw	r2,-4(fp)
  805578:	10000f15 	stw	zero,60(r2)
